ccopy_reg
_reconstructor
p0
(copenmc.mgxs.library
Library
p1
c__builtin__
object
p2
Ntp3
Rp4
(dp5
S'_all_mgxs'
p6
ccollections
OrderedDict
p7
((lp8
(lp9
I10001
ag7
((lp10
(lp11
S'transport'
p12
ag0
(copenmc.mgxs.mgxs
TransportXS
p13
g2
Ntp14
Rp15
(dp16
S'_energy_groups'
p17
g0
(copenmc.mgxs.groups
EnergyGroups
p18
g2
Ntp19
Rp20
(dp21
S'_group_edges'
p22
cnumpy.core.multiarray
_reconstruct
p23
(cnumpy
ndarray
p24
(I0
tp25
S'b'
p26
tp27
Rp28
(I1
(I3
tp29
cnumpy
dtype
p30
(S'f8'
p31
I0
I1
tp32
Rp33
(I3
S'<'
p34
NNNI-1
I-1
I0
tp35
bI00
S'\x00\x00\x00\x00\x00\x00\x00\x00\xf1h\xe3\x88\xb5\xf8\xa4>\x00\x00\x00\x00\x00\x004@'
p36
tp37
bsbsS'_domain_type'
p38
S'cell'
p39
sS'_tally_trigger'
p40
NsS'_rxn_type'
p41
g12
sS'_name'
p42
S''
p43
sS'_domain'
p44
g0
(copenmc.universe
Cell
p45
g2
Ntp46
Rp47
(dp48
S'_translation'
p49
NsS'_type'
p50
S'normal'
p51
sS'_rotation'
p52
NsS'_fill'
p53
g0
(copenmc.material
Material
p54
g2
Ntp55
Rp56
(dp57
S'_density_units'
p58
S'atom/b-cm'
p59
sS'_density'
p60
cnumpy.core.multiarray
scalar
p61
(g33
S'\tT O\xef\x83/?'
p62
tp63
Rp64
sS'_sab'
p65
(lp66
sg42
Vhelium
p67
sS'_nuclides'
p68
g7
((lp69
(lp70
VHe-3
p71
a(g0
(copenmc.nuclide
Nuclide
p72
g2
Ntp73
Rp74
(dp75
S'_xs'
p76
V71c
p77
sS'_zaid'
p78
Nsg42
g71
sbg61
(g33
S'\xc0g\xc6<\x18$\xf6='
p79
tp80
Rp81
S'ao'
p82
tp83
aa(lp84
VHe-4
p85
a(g0
(g72
g2
Ntp86
Rp87
(dp88
g76
V71c
p89
sg78
Nsg42
g85
sbg61
(g33
S'qL\x9d\x8a\xec\x83/?'
p90
tp91
Rp92
g82
tp93
aatp94
Rp95
sS'_elements'
p96
g7
((lp97
tp98
Rp99
sS'_convert_to_distrib_comps'
p100
I00
sS'_distrib_otf_file'
p101
NsS'_id'
p102
I10004
sbsg42
VFuel rod active region - 1.6% enr radial 1: helium
p103
sS'_region'
p104
g0
(copenmc.region
Intersection
p105
g2
Ntp106
Rp107
(dp108
S'_nodes'
p109
(lp110
g0
(copenmc.surface
Halfspace
p111
g2
Ntp112
Rp113
(dp114
S'_surface'
p115
g0
(copenmc.surface
ZCylinder
p116
g2
Ntp117
Rp118
(dp119
g50
S'z-cylinder'
p120
sS'_coeffs'
p121
(dp122
S'y0'
p123
g61
(g33
S'\x00\x00\x00\x00\x00\x00\x00\x00'
p124
tp125
Rp126
sS'x0'
p127
g61
(g33
S'\x00\x00\x00\x00\x00\x00\x00\x00'
p128
tp129
Rp130
sS'R'
p131
g61
(g33
S'DL\x89$z\x19\xd9?'
p132
tp133
Rp134
ssg42
VFuel pellet OR
p135
sS'_boundary_type'
p136
Vtransmission
p137
sg102
I10004
sS'_coeff_keys'
p138
(lp139
g127
ag123
ag131
asbsS'_side'
p140
S'+'
p141
sbag0
(g111
g2
Ntp142
Rp143
(dp144
g115
g0
(g116
g2
Ntp145
Rp146
(dp147
g50
g120
sg121
(dp148
g123
g61
(g33
S'\x00\x00\x00\x00\x00\x00\x00\x00'
p149
tp150
Rp151
sg127
g61
(g33
S'\x00\x00\x00\x00\x00\x00\x00\x00'
p152
tp153
Rp154
sg131
g61
(g33
S'|\xf2\xb0Pk\x9a\xd9?'
p155
tp156
Rp157
ssg42
VFuel clad IR
p158
sg136
Vtransmission
p159
sg102
I10005
sg138
(lp160
g127
ag123
ag131
asbsg140
S'-'
p161
sbasbsS'_offsets'
p162
Nsg102
I10001
sbsS'_xs_tally'
p163
g0
(copenmc.tallies
Tally
p164
g2
Ntp165
Rp166
(dp167
S'_derived'
p168
I01
sS'_filters'
p169
(lp170
g0
(copenmc.filter
Filter
p171
g2
Ntp172
Rp173
(dp174
S'_bins'
p175
g23
(g24
(I0
tp176
g26
tp177
Rp178
(I1
(I1
tp179
g30
(S'i8'
p180
I0
I1
tp181
Rp182
(I3
S'<'
p183
NNNI-1
I-1
I0
tp184
bI00
S"\x11'\x00\x00\x00\x00\x00\x00"
p185
tp186
bsg50
Vcell
p187
sS'_stride'
p188
g61
(g182
S'\x02\x00\x00\x00\x00\x00\x00\x00'
p189
tp190
Rp191
sS'_mesh'
p192
NsS'_num_bins'
p193
I1
sS'_offset'
p194
g61
(g30
(S'i4'
p195
I0
I1
tp196
Rp197
(I3
S'<'
p198
NNNI-1
I-1
I0
tp199
bS'\x00\x00\x00\x00'
p200
tp201
Rp202
sbag0
(g171
g2
Ntp203
Rp204
(dp205
g175
g23
(g24
(I0
tp206
g26
tp207
Rp208
(I1
(I3
tp209
g33
I00
S'\x00\x00\x00\x00\x00\x00\x00\x00\xf1h\xe3\x88\xb5\xf8\xa4>\x00\x00\x00\x00\x00\x004@'
p210
tp211
bsg50
Venergy
p212
sg188
g61
(g182
S'\x01\x00\x00\x00\x00\x00\x00\x00'
p213
tp214
Rp215
sg192
Nsg193
I2
sg194
g61
(g197
S'\x00\x00\x00\x00'
p216
tp217
Rp218
sbasS'_sp_filename'
p219
NsS'_mean'
p220
g23
(g24
(I0
tp221
g26
tp222
Rp223
(I1
(I2
I1
I1
tp224
g33
I00
S'zZ7\xfb\xf1f(?\x11\xdb\x7f\x1a8\x116?'
p225
tp226
bsS'_sum'
p227
NsS'_sum_sq'
p228
NsS'_std_dev'
p229
g23
(g24
(I0
tp230
g26
tp231
Rp232
(I1
(I2
I1
I1
tp233
g33
I00
S'5\x83\xba\xa7\x80\xc2\x19?l^\xa7\x04tU\n?'
p234
tp235
bsg42
g43
sS'_triggers'
p236
(lp237
sS'_num_realizations'
p238
g61
(g197
S'Z\x00\x00\x00'
p239
tp240
Rp241
sg68
(lp242
g0
(g72
g2
Ntp243
Rp244
(dp245
g76
Nsg78
Nsg42
Vtotal
p246
sbasS'_num_score_bins'
p247
g61
(g182
S'\x01\x00\x00\x00\x00\x00\x00\x00'
p248
tp249
Rp250
sS'_estimator'
p251
Vanalog
p252
sS'_with_batch_statistics'
p253
I01
sS'_results_read'
p254
I00
sS'_scores'
p255
(lp256
g0
(copenmc.cross
CrossScore
p257
g2
Ntp258
Rp259
(dp260
S'_right_score'
p261
Vflux
p262
sS'_binary_op'
p263
S'/'
p264
sS'_left_score'
p265
g0
(g257
g2
Ntp266
Rp267
(dp268
g261
Vscatter-P1
p269
sg263
g161
sg265
Vtotal
p270
sbsbasg102
I10004
sS'_with_summary'
p271
I01
sbsS'_tallies'
p272
g7
((lp273
(lp274
S'flux'
p275
ag0
(g164
g2
Ntp276
Rp277
(dp278
g168
I00
sg169
(lp279
g0
(g171
g2
Ntp280
Rp281
(dp282
g175
g23
(g24
(I0
tp283
g26
tp284
Rp285
(I1
(I1
tp286
g182
I00
S"\x11'\x00\x00\x00\x00\x00\x00"
p287
tp288
bsg50
g187
sg188
g61
(g182
S'\x02\x00\x00\x00\x00\x00\x00\x00'
p289
tp290
Rp291
sg192
Nsg193
I1
sg194
g202
sbag0
(g171
g2
Ntp292
Rp293
(dp294
g175
g23
(g24
(I0
tp295
g26
tp296
Rp297
(I1
(I3
tp298
g33
I00
S'\x00\x00\x00\x00\x00\x00\x00\x00\xf1h\xe3\x88\xb5\xf8\xa4>\x00\x00\x00\x00\x00\x004@'
p299
tp300
bsg50
g212
sg188
g61
(g182
S'\x01\x00\x00\x00\x00\x00\x00\x00'
p301
tp302
Rp303
sg192
Nsg193
I2
sg194
g218
sbasg219
Vstatepoint.100.h5
p304
sg236
(lp305
sg228
g23
(g24
(I0
tp306
g26
tp307
Rp308
(I1
(I2
I1
I1
tp309
g33
I00
S'+\xbc8\xdb]\x02\x10@\xa1\rw\xa1\xf2EB@'
p310
tp311
bsg229
g23
(g24
(I0
tp312
g26
tp313
Rp314
(I1
(I2
I1
I1
tp315
g33
I00
S"\xf4\x16y\xf3\xdb\xbf\x95?_\xff\x91\xb8\xaa'\xa7?"
p316
tp317
bsg42
V
p318
sg255
(lp319
g262
asg220
g23
(g24
(I0
tp320
g26
tp321
Rp322
(I1
(I2
I1
I1
tp323
g33
I00
S'\xa8\x03>\x03z\xd3\xb0?n\x83\xb1%\x16K\xde?'
p324
tp325
bsg238
g241
sg68
(lp326
g0
(g72
g2
Ntp327
Rp328
(dp329
g76
Nsg78
Nsg42
g246
sbasg227
g23
(g24
(I0
tp330
g26
tp331
Rp332
(I1
(I2
I1
I1
tp333
g33
I00
S'$5\x8f\x94c\xa9\x17@i\xd0\x80\x92\xcbLE@'
p334
tp335
bsg251
g252
sg253
I00
sg254
I01
sg247
g61
(g182
S'\x01\x00\x00\x00\x00\x00\x00\x00'
p336
tp337
Rp338
sg102
g61
(g197
S"T'\x00\x00"
p339
tp340
Rp341
sg271
I01
sbaa(lp342
S'total'
p343
ag0
(g164
g2
Ntp344
Rp345
(dp346
g168
I00
sg169
(lp347
g173
ag204
asg219
g304
sg236
(lp348
sg228
g23
(g24
(I0
tp349
g26
tp350
Rp351
(I1
(I2
I1
I1
tp352
g33
I00
S'<\x8c0\xe2\x8ey\x85>\xc6\xb3.\xe2\xf9\x14\xd9>'
p353
tp354
bsg229
g23
(g24
(I0
tp355
g26
tp356
Rp357
(I1
(I2
I1
I1
tp358
g33
I00
S'\x03\x90\x96\xfe\xa7\xc8\xd1>\xf8\xa0\xecM\xd2\xa7\xee>'
p359
tp360
bsg42
g318
sg255
(lp361
g270
asg220
g23
(g24
(I0
tp362
g26
tp363
Rp364
(I1
(I2
I1
I1
tp365
g33
I00
S'\x976/aG\xf6\xeb>f2\xe0\xddh\x8b,?'
p366
tp367
bsg238
g241
sg68
(lp368
g244
asg227
g23
(g24
(I0
tp369
g26
tp370
Rp371
(I1
(I2
I1
I1
tp372
g33
I00
S'b2U0*\xa9S?p\xa3\x01\xbc\x05\x12\x94?'
p373
tp374
bsg251
g252
sg253
I01
sg254
I01
sg247
g61
(g182
S'\x01\x00\x00\x00\x00\x00\x00\x00'
p375
tp376
Rp377
sg102
g341
sg271
I01
sbaa(lp378
S'scatter-P1'
p379
ag0
(g164
g2
Ntp380
Rp381
(dp382
g168
I00
sg169
(lp383
g0
(g171
g2
Ntp384
Rp385
(dp386
g175
g23
(g24
(I0
tp387
g26
tp388
Rp389
(I1
(I1
tp390
g182
I00
S"\x11'\x00\x00\x00\x00\x00\x00"
p391
tp392
bsg50
Vcell
p393
sg188
g61
(g182
S'\x02\x00\x00\x00\x00\x00\x00\x00'
p394
tp395
Rp396
sg192
Nsg193
I1
sg194
g61
(g197
S'\x00\x00\x00\x00'
p397
tp398
Rp399
sbag0
(g171
g2
Ntp400
Rp401
(dp402
g175
g23
(g24
(I0
tp403
g26
tp404
Rp405
(I1
(I3
tp406
g33
I00
S'\x00\x00\x00\x00\x00\x00\x00\x00\xf1h\xe3\x88\xb5\xf8\xa4>\x00\x00\x00\x00\x00\x004@'
p407
tp408
bsg50
S'energy'
p409
sg188
g61
(g182
S'\x01\x00\x00\x00\x00\x00\x00\x00'
p410
tp411
Rp412
sg192
Nsg193
I2
sg194
g61
(g197
S'\x00\x00\x00\x00'
p413
tp414
Rp415
sbasg219
Vstatepoint.100.h5
p416
sg236
(lp417
sg228
g23
(g24
(I0
tp418
g26
tp419
Rp420
(I1
(I2
I1
I1
tp421
g33
I00
S',\xbaA\xab\x9arq>\xbf\x9cI\xbe\xae:\xb5>'
p422
tp423
bsg229
g23
(g24
(I0
tp424
g26
tp425
Rp426
(I1
(I2
I1
I1
tp427
g33
I00
S'e\xfdR\xa7=\xe0\xc7>\xce\x98\xf2s\xac\xf0\xe6>'
p428
tp429
bsg42
g318
sg255
(lp430
g269
asg220
g23
(g24
(I0
tp431
g26
tp432
Rp433
(I1
(I2
I1
I1
tp434
g33
I00
S'\x04\xa6\x7f\xc7mf\xb2>\x94Q\xd5\x8e\xf2\x9d\x0e?'
p435
tp436
bsg238
g61
(g197
S'Z\x00\x00\x00'
p437
tp438
Rp439
sg68
(lp440
g0
(g72
g2
Ntp441
Rp442
(dp443
g76
Nsg78
Nsg42
Vtotal
p444
sbasg227
g23
(g24
(I0
tp445
g26
tp446
Rp447
(I1
(I2
I1
I1
tp448
g33
I00
S'v\x81\x8b`\n\xe0\x19?\\\xfdm\x8c\x0e\x87u?'
p449
tp450
bsg251
Vanalog
p451
sg253
I00
sg254
I01
sg247
g61
(g182
S'\x01\x00\x00\x00\x00\x00\x00\x00'
p452
tp453
Rp454
sg102
g61
(g197
S"Z'\x00\x00"
p455
tp456
Rp457
sg271
I01
sbaatp458
Rp459
sS'_by_nuclide'
p460
I00
sbaa(lp461
S'nu-fission'
p462
ag0
(copenmc.mgxs.mgxs
NuFissionXS
p463
g2
Ntp464
Rp465
(dp466
g17
g20
sg38
g39
sg40
Nsg41
S'nu-fission'
p467
sg42
g43
sg44
g47
sg163
g0
(g164
g2
Ntp468
Rp469
(dp470
g168
I01
sg169
(lp471
g0
(g171
g2
Ntp472
Rp473
(dp474
g175
g23
(g24
(I0
tp475
g26
tp476
Rp477
(I1
(I1
tp478
g182
I00
S"\x11'\x00\x00\x00\x00\x00\x00"
p479
tp480
bsg50
Vcell
p481
sg188
g61
(g182
S'\x02\x00\x00\x00\x00\x00\x00\x00'
p482
tp483
Rp484
sg192
Nsg193
I1
sg194
g61
(g197
S'\x00\x00\x00\x00'
p485
tp486
Rp487
sbag0
(g171
g2
Ntp488
Rp489
(dp490
g175
g23
(g24
(I0
tp491
g26
tp492
Rp493
(I1
(I3
tp494
g33
I00
S'\x00\x00\x00\x00\x00\x00\x00\x00\xf1h\xe3\x88\xb5\xf8\xa4>\x00\x00\x00\x00\x00\x004@'
p495
tp496
bsg50
Venergy
p497
sg188
g61
(g182
S'\x01\x00\x00\x00\x00\x00\x00\x00'
p498
tp499
Rp500
sg192
Nsg193
I2
sg194
g61
(g197
S'\x00\x00\x00\x00'
p501
tp502
Rp503
sbasg219
Nsg220
g23
(g24
(I0
tp504
g26
tp505
Rp506
(I1
(I2
I1
I1
tp507
g33
I00
S'\x00\x00\x00\x00\x00\x00\x00\x00\x00\x00\x00\x00\x00\x00\x00\x00'
p508
tp509
bsg227
Nsg228
Nsg229
g23
(g24
(I0
tp510
g26
tp511
Rp512
(I1
(I2
I1
I1
tp513
g33
I00
S'\x00\x00\x00\x00\x00\x00\x00\x00\x00\x00\x00\x00\x00\x00\x00\x00'
p514
tp515
bsg42
g43
sg236
(lp516
sg238
g61
(g197
S'Z\x00\x00\x00'
p517
tp518
Rp519
sg68
(lp520
g0
(g72
g2
Ntp521
Rp522
(dp523
g76
Nsg78
Nsg42
Vtotal
p524
sbasg247
g61
(g182
S'\x01\x00\x00\x00\x00\x00\x00\x00'
p525
tp526
Rp527
sg251
Vtracklength
p528
sg253
I01
sg254
I00
sg255
(lp529
g0
(g257
g2
Ntp530
Rp531
(dp532
g261
Vflux
p533
sg263
g264
sg265
Vnu-fission
p534
sbasg102
I10007
sg271
I01
sbsg272
g7
((lp535
(lp536
g275
ag0
(g164
g2
Ntp537
Rp538
(dp539
g168
I00
sg169
(lp540
g0
(g171
g2
Ntp541
Rp542
(dp543
g175
g23
(g24
(I0
tp544
g26
tp545
Rp546
(I1
(I1
tp547
g182
I00
S"\x11'\x00\x00\x00\x00\x00\x00"
p548
tp549
bsg50
g481
sg188
g61
(g182
S'\x02\x00\x00\x00\x00\x00\x00\x00'
p550
tp551
Rp552
sg192
Nsg193
I1
sg194
g487
sbag0
(g171
g2
Ntp553
Rp554
(dp555
g175
g23
(g24
(I0
tp556
g26
tp557
Rp558
(I1
(I3
tp559
g33
I00
S'\x00\x00\x00\x00\x00\x00\x00\x00\xf1h\xe3\x88\xb5\xf8\xa4>\x00\x00\x00\x00\x00\x004@'
p560
tp561
bsg50
g497
sg188
g61
(g182
S'\x01\x00\x00\x00\x00\x00\x00\x00'
p562
tp563
Rp564
sg192
Nsg193
I2
sg194
g503
sbasg219
Vstatepoint.100.h5
p565
sg236
(lp566
sg228
g23
(g24
(I0
tp567
g26
tp568
Rp569
(I1
(I2
I1
I1
tp570
g33
I00
S't\xf8\x07l\xbc\x1d\xf0?\xb0\xb5\x9e\xd17:3@'
p571
tp572
bsg229
g23
(g24
(I0
tp573
g26
tp574
Rp575
(I1
(I2
I1
I1
tp576
g33
I00
S'\xfe\xf2L\xc2r\xc3#?\x8e4\xe6\xcb\x88\x1f3?'
p577
tp578
bsg42
g318
sg255
(lp579
g533
asg220
g23
(g24
(I0
tp580
g26
tp581
Rp582
(I1
(I2
I1
I1
tp583
g33
I00
S'\x04\xb2`#\x81\x14\xbb?\x98\x8f72\xb6\x94\xdd?'
p584
tp585
bsg238
g519
sg68
(lp586
g0
(g72
g2
Ntp587
Rp588
(dp589
g76
Nsg78
Nsg42
g524
sbasg227
g23
(g24
(I0
tp590
g26
tp591
Rp592
(I1
(I2
I1
I1
tp593
g33
I00
S'+\xfd\xdf\xccj\n#@\xf7\x10O\x1b\x90\xccD@'
p594
tp595
bsg251
g528
sg253
I00
sg254
I01
sg247
g61
(g182
S'\x01\x00\x00\x00\x00\x00\x00\x00'
p596
tp597
Rp598
sg102
g61
(g197
S"P'\x00\x00"
p599
tp600
Rp601
sg271
I01
sbaa(lp602
S'nu-fission'
p603
ag0
(g164
g2
Ntp604
Rp605
(dp606
g168
I00
sg169
(lp607
g473
ag489
asg219
g565
sg236
(lp608
sg228
g23
(g24
(I0
tp609
g26
tp610
Rp611
(I1
(I2
I1
I1
tp612
g33
I00
S'\x00\x00\x00\x00\x00\x00\x00\x00\x00\x00\x00\x00\x00\x00\x00\x00'
p613
tp614
bsg229
g23
(g24
(I0
tp615
g26
tp616
Rp617
(I1
(I2
I1
I1
tp618
g33
I00
S'\x00\x00\x00\x00\x00\x00\x00\x00\x00\x00\x00\x00\x00\x00\x00\x00'
p619
tp620
bsg42
g318
sg255
(lp621
g534
asg220
g23
(g24
(I0
tp622
g26
tp623
Rp624
(I1
(I2
I1
I1
tp625
g33
I00
S'\x00\x00\x00\x00\x00\x00\x00\x00\x00\x00\x00\x00\x00\x00\x00\x00'
p626
tp627
bsg238
g519
sg68
(lp628
g522
asg227
g23
(g24
(I0
tp629
g26
tp630
Rp631
(I1
(I2
I1
I1
tp632
g33
I00
S'\x00\x00\x00\x00\x00\x00\x00\x00\x00\x00\x00\x00\x00\x00\x00\x00'
p633
tp634
bsg251
g528
sg253
I01
sg254
I01
sg247
g61
(g182
S'\x01\x00\x00\x00\x00\x00\x00\x00'
p635
tp636
Rp637
sg102
g601
sg271
I01
sbaatp638
Rp639
sg460
I00
sbaa(lp640
S'nu-scatter matrix'
p641
ag0
(copenmc.mgxs.mgxs
NuScatterMatrixXS
p642
g2
Ntp643
Rp644
(dp645
g17
g20
sg38
g39
sg40
Nsg41
S'nu-scatter matrix'
p646
sg42
g43
sS'_correction'
p647
S'P0'
p648
sg44
g47
sg163
g0
(g164
g2
Ntp649
Rp650
(dp651
g168
I01
sg169
(lp652
g0
(g171
g2
Ntp653
Rp654
(dp655
g175
g23
(g24
(I0
tp656
g26
tp657
Rp658
(I1
(I1
tp659
g182
I00
S"\x11'\x00\x00\x00\x00\x00\x00"
p660
tp661
bsg50
Vcell
p662
sg188
g61
(g182
S'\x04\x00\x00\x00\x00\x00\x00\x00'
p663
tp664
Rp665
sg192
Nsg193
I1
sg194
g61
(g197
S'\x00\x00\x00\x00'
p666
tp667
Rp668
sbag0
(g171
g2
Ntp669
Rp670
(dp671
g175
g23
(g24
(I0
tp672
g26
tp673
Rp674
(I1
(I3
tp675
g33
I00
S'\x00\x00\x00\x00\x00\x00\x00\x00\xf1h\xe3\x88\xb5\xf8\xa4>\x00\x00\x00\x00\x00\x004@'
p676
tp677
bsg50
Venergy
p678
sg188
g61
(g182
S'\x02\x00\x00\x00\x00\x00\x00\x00'
p679
tp680
Rp681
sg192
Nsg193
I2
sg194
g61
(g197
S'\x00\x00\x00\x00'
p682
tp683
Rp684
sbag0
(g171
g2
Ntp685
Rp686
(dp687
g175
g23
(g24
(I0
tp688
g26
tp689
Rp690
(I1
(I3
tp691
g33
I00
S'\x00\x00\x00\x00\x00\x00\x00\x00\xf1h\xe3\x88\xb5\xf8\xa4>\x00\x00\x00\x00\x00\x004@'
p692
tp693
bsg50
Venergyout
p694
sg188
g61
(g182
S'\x01\x00\x00\x00\x00\x00\x00\x00'
p695
tp696
Rp697
sg192
Nsg193
I2
sg194
g61
(g197
S'\x00\x00\x00\x00'
p698
tp699
Rp700
sbasg219
Nsg220
g23
(g24
(I0
tp701
g26
tp702
Rp703
(I1
(I4
I1
I1
tp704
g33
I00
S'zZ7\xfb\xf1f(?\x00\x00\x00\x00\x00\x00\x00\x00-\xc4N\x9c\x91\x89\xdd>\x00\xa0\x0e\xd4\x11\x9b5?'
p705
tp706
bsg227
Nsg228
Nsg229
g23
(g24
(I0
tp707
g26
tp708
Rp709
(I1
(I4
I1
I1
tp710
g33
I00
S'5\x83\xba\xa7\x80\xc2\x19?\x00\x00\x00\x00\x00\x00\x00\x00\xa6\xc7\xf6cc\x18\xd1>,\x1b\x84\xe3\xb7\x1b\n?'
p711
tp712
bsg42
g43
sg236
(lp713
sg238
g61
(g197
S'Z\x00\x00\x00'
p714
tp715
Rp716
sg68
(lp717
g0
(g72
g2
Ntp718
Rp719
(dp720
g76
Nsg78
Nsg42
Vtotal
p721
sbasg247
g61
(g182
S'\x01\x00\x00\x00\x00\x00\x00\x00'
p722
tp723
Rp724
sg251
Vanalog
p725
sg253
I01
sg254
I00
sg255
(lp726
g0
(g257
g2
Ntp727
Rp728
(dp729
g261
g262
sg263
g264
sg265
g0
(g257
g2
Ntp730
Rp731
(dp732
g261
g269
sg263
g161
sg265
Vnu-scatter
p733
sbsbasg102
I10012
sg271
I01
sbsg272
g7
((lp734
(lp735
g275
ag0
(g164
g2
Ntp736
Rp737
(dp738
g168
I00
sg169
(lp739
g0
(g171
g2
Ntp740
Rp741
(dp742
g175
g23
(g24
(I0
tp743
g26
tp744
Rp745
(I1
(I1
tp746
g182
I00
S"\x11'\x00\x00\x00\x00\x00\x00"
p747
tp748
bsg50
g187
sg188
g61
(g182
S'\x02\x00\x00\x00\x00\x00\x00\x00'
p749
tp750
Rp751
sg192
Nsg193
I1
sg194
g202
sbag0
(g171
g2
Ntp752
Rp753
(dp754
g175
g23
(g24
(I0
tp755
g26
tp756
Rp757
(I1
(I3
tp758
g33
I00
S'\x00\x00\x00\x00\x00\x00\x00\x00\xf1h\xe3\x88\xb5\xf8\xa4>\x00\x00\x00\x00\x00\x004@'
p759
tp760
bsg50
g212
sg188
g61
(g182
S'\x01\x00\x00\x00\x00\x00\x00\x00'
p761
tp762
Rp763
sg192
Nsg193
I2
sg194
g218
sbasg219
g304
sg236
(lp764
sg228
g23
(g24
(I0
tp765
g26
tp766
Rp767
(I1
(I2
I1
I1
tp768
g33
I00
S'+\xbc8\xdb]\x02\x10@\xa1\rw\xa1\xf2EB@'
p769
tp770
bsg229
g23
(g24
(I0
tp771
g26
tp772
Rp773
(I1
(I2
I1
I1
tp774
g33
I00
S"\xf4\x16y\xf3\xdb\xbf\x95?_\xff\x91\xb8\xaa'\xa7?"
p775
tp776
bsg42
g318
sg255
(lp777
g262
asg220
g23
(g24
(I0
tp778
g26
tp779
Rp780
(I1
(I2
I1
I1
tp781
g33
I00
S'\xa8\x03>\x03z\xd3\xb0?n\x83\xb1%\x16K\xde?'
p782
tp783
bsg238
g241
sg68
(lp784
g0
(g72
g2
Ntp785
Rp786
(dp787
g76
Nsg78
Nsg42
g246
sbasg227
g23
(g24
(I0
tp788
g26
tp789
Rp790
(I1
(I2
I1
I1
tp791
g33
I00
S'$5\x8f\x94c\xa9\x17@i\xd0\x80\x92\xcbLE@'
p792
tp793
bsg251
g252
sg253
I01
sg254
I01
sg247
g61
(g182
S'\x01\x00\x00\x00\x00\x00\x00\x00'
p794
tp795
Rp796
sg102
g341
sg271
I01
sbaa(lp797
S'scatter'
p798
ag0
(g164
g2
Ntp799
Rp800
(dp801
g168
I00
sg169
(lp802
g654
ag670
ag686
asg219
Vstatepoint.100.h5
p803
sg236
(lp804
sg228
g23
(g24
(I0
tp805
g26
tp806
Rp807
(I1
(I4
I1
I1
tp808
g33
I00
S'<\x8c0\xe2\x8ey\x85>\x00\x00\x00\x00\x00\x00\x00\x00,i\xa4)+\x1b`>6xp\xc1c\x89\xd8>'
p809
tp810
bsg229
g23
(g24
(I0
tp811
g26
tp812
Rp813
(I1
(I4
I1
I1
tp814
g33
I00
S'\x03\x90\x96\xfe\xa7\xc8\xd1>\x00\x00\x00\x00\x00\x00\x00\x00\xb2\xbc\xd7\x9dD\xec\xbf>L\xcf\xe4\xa8\x0e\xa7\xee>'
p815
tp816
bsg42
g318
sg255
(lp817
g733
asg220
g23
(g24
(I0
tp818
g26
tp819
Rp820
(I1
(I4
I1
I1
tp821
g33
I00
S'\x976/aG\xf6\xeb>\x00\x00\x00\x00\x00\x00\x00\x00\x976/aG\xf6\xcb>\x8bu[\xc0\x8f\x1b,?'
p822
tp823
bsg238
g716
sg68
(lp824
g719
asg227
g23
(g24
(I0
tp825
g26
tp826
Rp827
(I1
(I4
I1
I1
tp828
g33
I00
S'b2U0*\xa9S?\x00\x00\x00\x00\x00\x00\x00\x00b2U0*\xa93?\xa6N@\x13a\xc3\x93?'
p829
tp830
bsg251
g725
sg253
I00
sg254
I01
sg247
g61
(g197
S'\x01\x00\x00\x00'
p831
tp832
Rp833
sg102
g61
(g197
S"U'\x00\x00"
p834
tp835
Rp836
sg271
I01
sbaa(lp837
S'scatter-P1'
p838
ag0
(g164
g2
Ntp839
Rp840
(dp841
g168
I00
sg169
(lp842
g0
(g171
g2
Ntp843
Rp844
(dp845
g175
g23
(g24
(I0
tp846
g26
tp847
Rp848
(I1
(I1
tp849
g182
I00
S"\x11'\x00\x00\x00\x00\x00\x00"
p850
tp851
bsg50
g393
sg188
g61
(g182
S'\x02\x00\x00\x00\x00\x00\x00\x00'
p852
tp853
Rp854
sg192
Nsg193
I1
sg194
g399
sbag0
(g171
g2
Ntp855
Rp856
(dp857
g175
g23
(g24
(I0
tp858
g26
tp859
Rp860
(I1
(I3
tp861
g33
I00
S'\x00\x00\x00\x00\x00\x00\x00\x00\xf1h\xe3\x88\xb5\xf8\xa4>\x00\x00\x00\x00\x00\x004@'
p862
tp863
bsg50
Venergyout
p864
sg188
g61
(g182
S'\x01\x00\x00\x00\x00\x00\x00\x00'
p865
tp866
Rp867
sg192
Nsg193
I2
sg194
g415
sbasg219
g416
sg236
(lp868
sg228
g23
(g24
(I0
tp869
g26
tp870
Rp871
(I1
(I2
I1
I1
tp872
g33
I00
S',\xbaA\xab\x9arq>\xbf\x9cI\xbe\xae:\xb5>'
p873
tp874
bsg229
g23
(g24
(I0
tp875
g26
tp876
Rp877
(I1
(I2
I1
I1
tp878
g33
I00
S'e\xfdR\xa7=\xe0\xc7>\xce\x98\xf2s\xac\xf0\xe6>'
p879
tp880
bsg42
g318
sg255
(lp881
g269
asg220
g23
(g24
(I0
tp882
g26
tp883
Rp884
(I1
(I2
I1
I1
tp885
g33
I00
S'\x04\xa6\x7f\xc7mf\xb2>\x94Q\xd5\x8e\xf2\x9d\x0e?'
p886
tp887
bsg238
g439
sg68
(lp888
g0
(g72
g2
Ntp889
Rp890
(dp891
g76
Nsg78
Nsg42
g444
sbasg227
g23
(g24
(I0
tp892
g26
tp893
Rp894
(I1
(I2
I1
I1
tp895
g33
I00
S'v\x81\x8b`\n\xe0\x19?\\\xfdm\x8c\x0e\x87u?'
p896
tp897
bsg251
g451
sg253
I01
sg254
I01
sg247
g61
(g182
S'\x01\x00\x00\x00\x00\x00\x00\x00'
p898
tp899
Rp900
sg102
g457
sg271
I01
sbaatp901
Rp902
sg460
I00
sbaa(lp903
S'chi'
p904
ag0
(copenmc.mgxs.mgxs
Chi
p905
g2
Ntp906
Rp907
(dp908
g17
g20
sg38
g39
sg40
Nsg41
g904
sg42
g43
sg44
g47
sg163
g0
(g164
g2
Ntp909
Rp910
(dp911
g168
I01
sg169
(lp912
g0
(g171
g2
Ntp913
Rp914
(dp915
g175
g23
(g24
(I0
tp916
g26
tp917
Rp918
(I1
(I1
tp919
g182
I00
S"\x11'\x00\x00\x00\x00\x00\x00"
p920
tp921
bsg50
g393
sg188
g61
(g182
S'\x02\x00\x00\x00\x00\x00\x00\x00'
p922
tp923
Rp924
sg192
Nsg193
I1
sg194
g399
sbag0
(g171
g2
Ntp925
Rp926
(dp927
g175
g23
(g24
(I0
tp928
g26
tp929
Rp930
(I1
(I3
tp931
g33
I00
S'\x00\x00\x00\x00\x00\x00\x00\x00\xf1h\xe3\x88\xb5\xf8\xa4>\x00\x00\x00\x00\x00\x004@'
p932
tp933
bsg50
g864
sg188
g61
(g182
S'\x01\x00\x00\x00\x00\x00\x00\x00'
p934
tp935
Rp936
sg192
Nsg193
I2
sg194
g415
sbasg219
Nsg220
g23
(g24
(I0
tp937
g26
tp938
Rp939
(I1
(I2
I1
I1
tp940
g33
I00
S'\x00\x00\x00\x00\x00\x00\x00\x00\x00\x00\x00\x00\x00\x00\x00\x00'
p941
tp942
bsg227
Nsg228
Nsg229
g23
(g24
(I0
tp943
g26
tp944
Rp945
(I1
(I2
I1
I1
tp946
g33
I00
S'\x00\x00\x00\x00\x00\x00\x00\x00\x00\x00\x00\x00\x00\x00\x00\x00'
p947
tp948
bsg42
g43
sg236
(lp949
sg238
g439
sg68
(lp950
g0
(g72
g2
Ntp951
Rp952
(dp953
g76
Nsg78
Nsg42
g444
sbasg247
g61
(g182
S'\x01\x00\x00\x00\x00\x00\x00\x00'
p954
tp955
Rp956
sg251
g451
sg253
I01
sg254
I00
sg255
(lp957
Vnu-fission
p958
asg102
I10015
sg271
I01
sbsg272
g7
((lp959
(lp960
S'nu-fission-in'
p961
ag0
(g164
g2
Ntp962
Rp963
(dp964
g168
I00
sg169
(lp965
g0
(g171
g2
Ntp966
Rp967
(dp968
g175
g23
(g24
(I0
tp969
g26
tp970
Rp971
(I1
(I1
tp972
g182
I00
S"\x11'\x00\x00\x00\x00\x00\x00"
p973
tp974
bsg50
Vcell
p975
sg188
g61
(g182
S'\x01\x00\x00\x00\x00\x00\x00\x00'
p976
tp977
Rp978
sg192
Nsg193
I1
sg194
g61
(g197
S'\x00\x00\x00\x00'
p979
tp980
Rp981
sbag0
(g171
g2
Ntp982
Rp983
(dp984
g175
g23
(g24
(I0
tp985
g26
tp986
Rp987
(I1
(I2
tp988
g33
I00
S'\x00\x00\x00\x00\x00\x00\x00\x00\x00\x00\x00\x00\x00\x004@'
p989
tp990
bsg50
Venergy
p991
sg188
g61
(g182
S'\x01\x00\x00\x00\x00\x00\x00\x00'
p992
tp993
Rp994
sg192
Nsg193
I1
sg194
g61
(g197
S'\x00\x00\x00\x00'
p995
tp996
Rp997
sbasg219
Vstatepoint.100.h5
p998
sg236
(lp999
sg228
g23
(g24
(I0
tp1000
g26
tp1001
Rp1002
(I1
(I1
I1
I1
tp1003
g33
I00
S'\x00\x00\x00\x00\x00\x00\x00\x00'
p1004
tp1005
bsg229
g23
(g24
(I0
tp1006
g26
tp1007
Rp1008
(I1
(I1
I1
I1
tp1009
g33
I00
S'\x00\x00\x00\x00\x00\x00\x00\x00'
p1010
tp1011
bsg42
g318
sg255
(lp1012
Vnu-fission
p1013
asg220
g23
(g24
(I0
tp1014
g26
tp1015
Rp1016
(I1
(I1
I1
I1
tp1017
g33
I00
S'\x00\x00\x00\x00\x00\x00\x00\x00'
p1018
tp1019
bsg238
g61
(g197
S'Z\x00\x00\x00'
p1020
tp1021
Rp1022
sg68
(lp1023
g0
(g72
g2
Ntp1024
Rp1025
(dp1026
g76
Nsg78
Nsg42
Vtotal
p1027
sbasg227
g23
(g24
(I0
tp1028
g26
tp1029
Rp1030
(I1
(I1
I1
I1
tp1031
g33
I00
S'\x00\x00\x00\x00\x00\x00\x00\x00'
p1032
tp1033
bsg251
Vanalog
p1034
sg253
I00
sg254
I01
sg247
g61
(g197
S'\x01\x00\x00\x00'
p1035
tp1036
Rp1037
sg102
g61
(g197
S"Y'\x00\x00"
p1038
tp1039
Rp1040
sg271
I01
sbaa(lp1041
S'nu-fission-out'
p1042
ag0
(g164
g2
Ntp1043
Rp1044
(dp1045
g168
I00
sg169
(lp1046
g914
ag926
asg219
g416
sg236
(lp1047
sg228
g23
(g24
(I0
tp1048
g26
tp1049
Rp1050
(I1
(I2
I1
I1
tp1051
g33
I00
S'\x00\x00\x00\x00\x00\x00\x00\x00\x00\x00\x00\x00\x00\x00\x00\x00'
p1052
tp1053
bsg229
g23
(g24
(I0
tp1054
g26
tp1055
Rp1056
(I1
(I2
I1
I1
tp1057
g33
I00
S'\x00\x00\x00\x00\x00\x00\x00\x00\x00\x00\x00\x00\x00\x00\x00\x00'
p1058
tp1059
bsg42
g318
sg255
(lp1060
g958
asg220
g23
(g24
(I0
tp1061
g26
tp1062
Rp1063
(I1
(I2
I1
I1
tp1064
g33
I00
S'\x00\x00\x00\x00\x00\x00\x00\x00\x00\x00\x00\x00\x00\x00\x00\x00'
p1065
tp1066
bsg238
g439
sg68
(lp1067
g952
asg227
g23
(g24
(I0
tp1068
g26
tp1069
Rp1070
(I1
(I2
I1
I1
tp1071
g33
I00
S'\x00\x00\x00\x00\x00\x00\x00\x00\x00\x00\x00\x00\x00\x00\x00\x00'
p1072
tp1073
bsg251
g451
sg253
I01
sg254
I01
sg247
g956
sg102
g457
sg271
I01
sbaatp1074
Rp1075
sg460
I00
sbaatp1076
Rp1077
aa(lp1078
I10002
ag7
((lp1079
(lp1080
g12
ag0
(g13
g2
Ntp1081
Rp1082
(dp1083
g17
g20
sg38
g39
sg40
Nsg41
g12
sg42
g43
sg44
g0
(g45
g2
Ntp1084
Rp1085
(dp1086
g49
Nsg50
g51
sg52
Nsg53
g0
(g54
g2
Ntp1087
Rp1088
(dp1089
g58
g59
sg60
g61
(g33
S':\xd0\xc0E\xc3\xaa\xb1?'
p1090
tp1091
Rp1092
sg65
(lp1093
sg42
Vfuel 1.6%
p1094
sg68
g7
((lp1095
(lp1096
VO-16
p1097
a(g0
(g72
g2
Ntp1098
Rp1099
(dp1100
g76
V71c
p1101
sg78
Nsg42
g1097
sbg61
(g33
S'P\xd2k\x10\x0f\x8c\xa7?'
p1102
tp1103
Rp1104
g82
tp1105
aa(lp1106
VO-17
p1107
a(g0
(g72
g2
Ntp1108
Rp1109
(dp1110
g76
V71c
p1111
sg78
Nsg42
g1107
sbg61
(g33
S' \xe8%T\x0fU\xf2>'
p1112
tp1113
Rp1114
g82
tp1115
aa(lp1116
VU-234
p1117
a(g0
(g72
g2
Ntp1118
Rp1119
(dp1120
g76
V71c
p1121
sg78
Nsg42
g1117
sbg61
(g33
S'bZ\x00\xa3\xb5F\xc9>'
p1122
tp1123
Rp1124
g82
tp1125
aa(lp1126
VU-235
p1127
a(g0
(g72
g2
Ntp1128
Rp1129
(dp1130
g76
V71c
p1131
sg78
Nsg42
g1127
sbg61
(g33
S'\xfd\xeb\xcdo\x16\x948?'
p1132
tp1133
Rp1134
g82
tp1135
aa(lp1136
VU-238
p1137
a(g0
(g72
g2
Ntp1138
Rp1139
(dp1140
g76
V71c
p1141
sg78
Nsg42
g1137
sbg61
(g33
S'\x1bC\xea"?+\x97?'
p1142
tp1143
Rp1144
g82
tp1145
aatp1146
Rp1147
sg96
g7
((lp1148
tp1149
Rp1150
sg100
I00
sg101
Nsg102
I10008
sbsg42
VFuel rod active region - 1.6% enr radial 0: fuel 1.6%
p1151
sg104
g0
(g111
g2
Ntp1152
Rp1153
(dp1154
g115
g118
sg140
g161
sbsg162
Nsg102
I10002
sbsg163
g0
(g164
g2
Ntp1155
Rp1156
(dp1157
g168
I01
sg169
(lp1158
g0
(g171
g2
Ntp1159
Rp1160
(dp1161
g175
g23
(g24
(I0
tp1162
g26
tp1163
Rp1164
(I1
(I1
tp1165
g182
I00
S"\x12'\x00\x00\x00\x00\x00\x00"
p1166
tp1167
bsg50
g187
sg188
g61
(g182
S'\x02\x00\x00\x00\x00\x00\x00\x00'
p1168
tp1169
Rp1170
sg192
Nsg193
I1
sg194
g202
sbag0
(g171
g2
Ntp1171
Rp1172
(dp1173
g175
g23
(g24
(I0
tp1174
g26
tp1175
Rp1176
(I1
(I3
tp1177
g33
I00
S'\x00\x00\x00\x00\x00\x00\x00\x00\xf1h\xe3\x88\xb5\xf8\xa4>\x00\x00\x00\x00\x00\x004@'
p1178
tp1179
bsg50
g212
sg188
g61
(g182
S'\x01\x00\x00\x00\x00\x00\x00\x00'
p1180
tp1181
Rp1182
sg192
Nsg193
I2
sg194
g218
sbasg219
Nsg220
g23
(g24
(I0
tp1183
g26
tp1184
Rp1185
(I1
(I2
I1
I1
tp1186
g33
I00
S'3\xc6C\x84\xf8\xf6\xe2?\xea%\x0e:\xdb\xad\xd7?'
p1187
tp1188
bsg227
Nsg228
Nsg229
g23
(g24
(I0
tp1189
g26
tp1190
Rp1191
(I1
(I2
I1
I1
tp1192
g33
I00
S'\xb24\x94\xd4\x8e\xcdS?JD/\xb3(\x9c=?'
p1193
tp1194
bsg42
g43
sg236
(lp1195
sg238
g241
sg68
(lp1196
g0
(g72
g2
Ntp1197
Rp1198
(dp1199
g76
Nsg78
Nsg42
g246
sbasg247
g61
(g182
S'\x01\x00\x00\x00\x00\x00\x00\x00'
p1200
tp1201
Rp1202
sg251
g252
sg253
I01
sg254
I00
sg255
(lp1203
g0
(g257
g2
Ntp1204
Rp1205
(dp1206
g261
g262
sg263
g264
sg265
g0
(g257
g2
Ntp1207
Rp1208
(dp1209
g261
g269
sg263
g161
sg265
g270
sbsbasg102
I10020
sg271
I01
sbsg272
g7
((lp1210
(lp1211
g275
ag0
(g164
g2
Ntp1212
Rp1213
(dp1214
g168
I00
sg169
(lp1215
g0
(g171
g2
Ntp1216
Rp1217
(dp1218
g175
g23
(g24
(I0
tp1219
g26
tp1220
Rp1221
(I1
(I1
tp1222
g182
I00
S"\x12'\x00\x00\x00\x00\x00\x00"
p1223
tp1224
bsg50
g187
sg188
g61
(g182
S'\x02\x00\x00\x00\x00\x00\x00\x00'
p1225
tp1226
Rp1227
sg192
Nsg193
I1
sg194
g202
sbag0
(g171
g2
Ntp1228
Rp1229
(dp1230
g175
g23
(g24
(I0
tp1231
g26
tp1232
Rp1233
(I1
(I3
tp1234
g33
I00
S'\x00\x00\x00\x00\x00\x00\x00\x00\xf1h\xe3\x88\xb5\xf8\xa4>\x00\x00\x00\x00\x00\x004@'
p1235
tp1236
bsg50
g212
sg188
g61
(g182
S'\x01\x00\x00\x00\x00\x00\x00\x00'
p1237
tp1238
Rp1239
sg192
Nsg193
I2
sg194
g218
sbasg219
g304
sg236
(lp1240
sg228
g23
(g24
(I0
tp1241
g26
tp1242
Rp1243
(I1
(I2
I1
I1
tp1244
g33
I00
S'\xf9\xda\xf7`1\xe2\x81@GE0_\x0b9\xc7@'
p1245
tp1246
bsg229
g23
(g24
(I0
tp1247
g26
tp1248
Rp1249
(I1
(I2
I1
I1
tp1250
g33
I00
S'\xd9F\xc8\xf9\xd9\x1bm?\xa80\x05\xa8Y\xc7\x82?'
p1251
tp1252
bsg42
g318
sg255
(lp1253
g262
asg220
g23
(g24
(I0
tp1254
g26
tp1255
Rp1256
(I1
(I2
I1
I1
tp1257
g33
I00
S'\x1e\xc2\xb1\xcb\xd5+\x04@\xba6\xe9A\xc3\xfc&@'
p1258
tp1259
bsg238
g241
sg68
(lp1260
g0
(g72
g2
Ntp1261
Rp1262
(dp1263
g76
Nsg78
Nsg42
g246
sbasg227
g23
(g24
(I0
tp1264
g26
tp1265
Rp1266
(I1
(I2
I1
I1
tp1267
g33
I00
S'\xfa\xf8q\xa6\xa4]l@{\xfaWJ\xb9)\x90@'
p1268
tp1269
bsg251
g252
sg253
I01
sg254
I01
sg247
g61
(g182
S'\x01\x00\x00\x00\x00\x00\x00\x00'
p1270
tp1271
Rp1272
sg102
g341
sg271
I01
sbaa(lp1273
g343
ag0
(g164
g2
Ntp1274
Rp1275
(dp1276
g168
I00
sg169
(lp1277
g1160
ag1172
asg219
g304
sg236
(lp1278
sg228
g23
(g24
(I0
tp1279
g26
tp1280
Rp1281
(I1
(I2
I1
I1
tp1282
g33
I00
S"T\xf8\x9eW\xbd\xb6i@\x89\xbcH\x15'\xcc\x9f@"
p1283
tp1284
bsg229
g23
(g24
(I0
tp1285
g26
tp1286
Rp1287
(I1
(I2
I1
I1
tp1288
g33
I00
S'\x16`(\x0cj6a?)\x07j\n\xa8\xdcm?'
p1289
tp1290
bsg42
g318
sg255
(lp1291
g270
asg220
g23
(g24
(I0
tp1292
g26
tp1293
Rp1294
(I1
(I2
I1
I1
tp1295
g33
I00
S"\xa4y<|\xfb/\xf8?:\xf8\xd8\xbf'\x05\x13@"
p1296
tp1297
bsg238
g241
sg68
(lp1298
g1198
asg227
g23
(g24
(I0
tp1299
g26
tp1300
Rp1301
(I1
(I2
I1
I1
tp1302
g33
I00
S'\x87\x85Z\xd3\xbc\x01a@\x11\x1d\xc9\xe5?\xbfz@'
p1303
tp1304
bsg251
g252
sg253
I01
sg254
I01
sg247
g61
(g182
S'\x01\x00\x00\x00\x00\x00\x00\x00'
p1305
tp1306
Rp1307
sg102
g341
sg271
I01
sbaa(lp1308
g379
ag0
(g164
g2
Ntp1309
Rp1310
(dp1311
g168
I00
sg169
(lp1312
g0
(g171
g2
Ntp1313
Rp1314
(dp1315
g175
g23
(g24
(I0
tp1316
g26
tp1317
Rp1318
(I1
(I1
tp1319
g182
I00
S"\x12'\x00\x00\x00\x00\x00\x00"
p1320
tp1321
bsg50
g393
sg188
g61
(g182
S'\x02\x00\x00\x00\x00\x00\x00\x00'
p1322
tp1323
Rp1324
sg192
Nsg193
I1
sg194
g399
sbag0
(g171
g2
Ntp1325
Rp1326
(dp1327
g175
g23
(g24
(I0
tp1328
g26
tp1329
Rp1330
(I1
(I3
tp1331
g33
I00
S'\x00\x00\x00\x00\x00\x00\x00\x00\xf1h\xe3\x88\xb5\xf8\xa4>\x00\x00\x00\x00\x00\x004@'
p1332
tp1333
bsg50
g409
sg188
g61
(g182
S'\x01\x00\x00\x00\x00\x00\x00\x00'
p1334
tp1335
Rp1336
sg192
Nsg193
I2
sg194
g415
sbasg219
g416
sg236
(lp1337
sg228
g23
(g24
(I0
tp1338
g26
tp1339
Rp1340
(I1
(I2
I1
I1
tp1341
g33
I00
S'\xc9\xf6\xb3\x81?\x87\x9f?\xdc]!\x10\xe8\xbe6@'
p1342
tp1343
bsg229
g23
(g24
(I0
tp1344
g26
tp1345
Rp1346
(I1
(I2
I1
I1
tp1347
g33
I00
S'\xaf\xc1\xcc\xa1\xbd\xb0E?\x81\xee\x91\xf4\xbb"X?'
p1348
tp1349
bsg42
g318
sg255
(lp1350
g269
asg220
g23
(g24
(I0
tp1351
g26
tp1352
Rp1353
(I1
(I2
I1
I1
tp1354
g33
I00
S'\r\xee\xf1q\xec\xd3\x91?:j\x83j\xbb\x14\xe0?'
p1355
tp1356
bsg238
g439
sg68
(lp1357
g0
(g72
g2
Ntp1358
Rp1359
(dp1360
g76
Nsg78
Nsg42
g444
sbasg227
g23
(g24
(I0
tp1361
g26
tp1362
Rp1363
(I1
(I2
I1
I1
tp1364
g33
I00
S"\xc26<\x80\x04\x12\xf9?a\xcd\xc8\x8d'\x9dF@"
p1365
tp1366
bsg251
g451
sg253
I01
sg254
I01
sg247
g61
(g182
S'\x01\x00\x00\x00\x00\x00\x00\x00'
p1367
tp1368
Rp1369
sg102
g457
sg271
I01
sbaatp1370
Rp1371
sg460
I00
sbaa(lp1372
g462
ag0
(g463
g2
Ntp1373
Rp1374
(dp1375
g17
g20
sg38
g39
sg40
Nsg41
g467
sg42
g43
sg44
g1085
sg163
g0
(g164
g2
Ntp1376
Rp1377
(dp1378
g168
I01
sg169
(lp1379
g0
(g171
g2
Ntp1380
Rp1381
(dp1382
g175
g23
(g24
(I0
tp1383
g26
tp1384
Rp1385
(I1
(I1
tp1386
g182
I00
S"\x12'\x00\x00\x00\x00\x00\x00"
p1387
tp1388
bsg50
g481
sg188
g61
(g182
S'\x02\x00\x00\x00\x00\x00\x00\x00'
p1389
tp1390
Rp1391
sg192
Nsg193
I1
sg194
g487
sbag0
(g171
g2
Ntp1392
Rp1393
(dp1394
g175
g23
(g24
(I0
tp1395
g26
tp1396
Rp1397
(I1
(I3
tp1398
g33
I00
S'\x00\x00\x00\x00\x00\x00\x00\x00\xf1h\xe3\x88\xb5\xf8\xa4>\x00\x00\x00\x00\x00\x004@'
p1399
tp1400
bsg50
g497
sg188
g61
(g182
S'\x01\x00\x00\x00\x00\x00\x00\x00'
p1401
tp1402
Rp1403
sg192
Nsg193
I2
sg194
g503
sbasg219
Nsg220
g23
(g24
(I0
tp1404
g26
tp1405
Rp1406
(I1
(I2
I1
I1
tp1407
g33
I00
S'\xed\x82k\x11S\x9b\xd5?\x0c\xce\xe2V\x9a]\x8f?'
p1408
tp1409
bsg227
Nsg228
Nsg229
g23
(g24
(I0
tp1410
g26
tp1411
Rp1412
(I1
(I2
I1
I1
tp1413
g33
I00
S'O\x9c\xebd\x18\x93F?e\x0e%c\xe8\x8a\xf1>'
p1414
tp1415
bsg42
g43
sg236
(lp1416
sg238
g519
sg68
(lp1417
g0
(g72
g2
Ntp1418
Rp1419
(dp1420
g76
Nsg78
Nsg42
g524
sbasg247
g61
(g182
S'\x01\x00\x00\x00\x00\x00\x00\x00'
p1421
tp1422
Rp1423
sg251
g528
sg253
I01
sg254
I00
sg255
(lp1424
g0
(g257
g2
Ntp1425
Rp1426
(dp1427
g261
g533
sg263
g264
sg265
g534
sbasg102
I10023
sg271
I01
sbsg272
g7
((lp1428
(lp1429
g275
ag0
(g164
g2
Ntp1430
Rp1431
(dp1432
g168
I00
sg169
(lp1433
g0
(g171
g2
Ntp1434
Rp1435
(dp1436
g175
g23
(g24
(I0
tp1437
g26
tp1438
Rp1439
(I1
(I1
tp1440
g182
I00
S"\x12'\x00\x00\x00\x00\x00\x00"
p1441
tp1442
bsg50
g481
sg188
g61
(g182
S'\x02\x00\x00\x00\x00\x00\x00\x00'
p1443
tp1444
Rp1445
sg192
Nsg193
I1
sg194
g487
sbag0
(g171
g2
Ntp1446
Rp1447
(dp1448
g175
g23
(g24
(I0
tp1449
g26
tp1450
Rp1451
(I1
(I3
tp1452
g33
I00
S'\x00\x00\x00\x00\x00\x00\x00\x00\xf1h\xe3\x88\xb5\xf8\xa4>\x00\x00\x00\x00\x00\x004@'
p1453
tp1454
bsg50
g497
sg188
g61
(g182
S'\x01\x00\x00\x00\x00\x00\x00\x00'
p1455
tp1456
Rp1457
sg192
Nsg193
I2
sg194
g503
sbasg219
g565
sg236
(lp1458
sg228
g23
(g24
(I0
tp1459
g26
tp1460
Rp1461
(I1
(I2
I1
I1
tp1462
g33
I00
S'\xa5\xaa\xb0\xadp\xde\x81@\xa7\x13\x93\xfa\x159\xc7@'
p1463
tp1464
bsg229
g23
(g24
(I0
tp1465
g26
tp1466
Rp1467
(I1
(I2
I1
I1
tp1468
g33
I00
S'Z\x1f\xbc\x10\x06@l?C]\x0c\x81\x19\xb2{?'
p1469
tp1470
bsg42
g318
sg255
(lp1471
g533
asg220
g23
(g24
(I0
tp1472
g26
tp1473
Rp1474
(I1
(I2
I1
I1
tp1475
g33
I00
S'\xc4\xc4\x18\x96\xbe)\x04@\x8bx\xcb\xf8\xdb\xfc&@'
p1476
tp1477
bsg238
g519
sg68
(lp1478
g0
(g72
g2
Ntp1479
Rp1480
(dp1481
g76
Nsg78
Nsg42
g524
sbasg227
g23
(g24
(I0
tp1482
g26
tp1483
Rp1484
(I1
(I2
I1
I1
tp1485
g33
I00
S'\xb3\xd4\x12\x03\xb4Zl@\xc2\x10\xef\xaa\xca)\x90@'
p1486
tp1487
bsg251
g528
sg253
I01
sg254
I01
sg247
g61
(g182
S'\x01\x00\x00\x00\x00\x00\x00\x00'
p1488
tp1489
Rp1490
sg102
g601
sg271
I01
sbaa(lp1491
g603
ag0
(g164
g2
Ntp1492
Rp1493
(dp1494
g168
I00
sg169
(lp1495
g1381
ag1393
asg219
g565
sg236
(lp1496
sg228
g23
(g24
(I0
tp1497
g26
tp1498
Rp1499
(I1
(I2
I1
I1
tp1500
g33
I00
S'{\xe3\xa7\xff6KP@\x1a\x1b[\xbe\xf7O\x06@'
p1501
tp1502
bsg229
g23
(g24
(I0
tp1503
g26
tp1504
Rp1505
(I1
(I2
I1
I1
tp1506
g33
I00
S'y#\xe0x\x1d\x1bU?x(!\xbe\xa9<%?'
p1507
tp1508
bsg42
g318
sg255
(lp1509
g534
asg220
g23
(g24
(I0
tp1510
g26
tp1511
Rp1512
(I1
(I2
I1
I1
tp1513
g33
I00
S'|\x13\xcf9\x87:\xeb?sF\x9d\xd72\x88\xc6?'
p1514
tp1515
bsg238
g519
sg68
(lp1516
g1419
asg227
g23
(g24
(I0
tp1517
g26
tp1518
Rp1519
(I1
(I2
I1
I1
tp1520
g33
I00
S"\xb3\x99\xa5\x14'%S@\x12+5\x7f\x87\xaf/@"
p1521
tp1522
bsg251
g528
sg253
I01
sg254
I01
sg247
g61
(g182
S'\x01\x00\x00\x00\x00\x00\x00\x00'
p1523
tp1524
Rp1525
sg102
g601
sg271
I01
sbaatp1526
Rp1527
sg460
I00
sbaa(lp1528
g641
ag0
(g642
g2
Ntp1529
Rp1530
(dp1531
g17
g20
sg38
g39
sg40
Nsg41
g646
sg42
g43
sg647
g648
sg44
g1085
sg163
g0
(g164
g2
Ntp1532
Rp1533
(dp1534
g168
I01
sg169
(lp1535
g0
(g171
g2
Ntp1536
Rp1537
(dp1538
g175
g23
(g24
(I0
tp1539
g26
tp1540
Rp1541
(I1
(I1
tp1542
g182
I00
S"\x12'\x00\x00\x00\x00\x00\x00"
p1543
tp1544
bsg50
g662
sg188
g61
(g182
S'\x04\x00\x00\x00\x00\x00\x00\x00'
p1545
tp1546
Rp1547
sg192
Nsg193
I1
sg194
g668
sbag0
(g171
g2
Ntp1548
Rp1549
(dp1550
g175
g23
(g24
(I0
tp1551
g26
tp1552
Rp1553
(I1
(I3
tp1554
g33
I00
S'\x00\x00\x00\x00\x00\x00\x00\x00\xf1h\xe3\x88\xb5\xf8\xa4>\x00\x00\x00\x00\x00\x004@'
p1555
tp1556
bsg50
g678
sg188
g61
(g182
S'\x02\x00\x00\x00\x00\x00\x00\x00'
p1557
tp1558
Rp1559
sg192
Nsg193
I2
sg194
g684
sbag0
(g171
g2
Ntp1560
Rp1561
(dp1562
g175
g23
(g24
(I0
tp1563
g26
tp1564
Rp1565
(I1
(I3
tp1566
g33
I00
S'\x00\x00\x00\x00\x00\x00\x00\x00\xf1h\xe3\x88\xb5\xf8\xa4>\x00\x00\x00\x00\x00\x004@'
p1567
tp1568
bsg50
g694
sg188
g61
(g182
S'\x01\x00\x00\x00\x00\x00\x00\x00'
p1569
tp1570
Rp1571
sg192
Nsg193
I2
sg194
g700
sbasg219
Nsg220
g23
(g24
(I0
tp1572
g26
tp1573
Rp1574
(I1
(I4
I1
I1
tp1575
g33
I00
S'\x9d\x83y6$\xe5\xd8?2g\xf6\xe4\x9a\xe97?!\x13\xa3\xbf\xc0\xdfI?\x96\x8b\xf2\xbe\xd7\x05\xd6?'
p1576
tp1577
bsg227
Nsg228
Nsg229
g23
(g24
(I0
tp1578
g26
tp1579
Rp1580
(I1
(I4
I1
I1
tp1581
g33
I00
S'\x9e\xac\xcaQo{O?\xb5 =\x9a\xc5\x16\xed>\xc6Q\xba\xf7\x87\xcb\xe0>^<F\x95A\xa7<?'
p1582
tp1583
bsg42
g43
sg236
(lp1584
sg238
g716
sg68
(lp1585
g0
(g72
g2
Ntp1586
Rp1587
(dp1588
g76
Nsg78
Nsg42
g721
sbasg247
g61
(g182
S'\x01\x00\x00\x00\x00\x00\x00\x00'
p1589
tp1590
Rp1591
sg251
g725
sg253
I01
sg254
I00
sg255
(lp1592
g0
(g257
g2
Ntp1593
Rp1594
(dp1595
g261
g262
sg263
g264
sg265
g0
(g257
g2
Ntp1596
Rp1597
(dp1598
g261
g269
sg263
g161
sg265
g733
sbsbasg102
I10028
sg271
I01
sbsg272
g7
((lp1599
(lp1600
g275
ag0
(g164
g2
Ntp1601
Rp1602
(dp1603
g168
I00
sg169
(lp1604
g0
(g171
g2
Ntp1605
Rp1606
(dp1607
g175
g23
(g24
(I0
tp1608
g26
tp1609
Rp1610
(I1
(I1
tp1611
g182
I00
S"\x12'\x00\x00\x00\x00\x00\x00"
p1612
tp1613
bsg50
g187
sg188
g61
(g182
S'\x02\x00\x00\x00\x00\x00\x00\x00'
p1614
tp1615
Rp1616
sg192
Nsg193
I1
sg194
g202
sbag0
(g171
g2
Ntp1617
Rp1618
(dp1619
g175
g23
(g24
(I0
tp1620
g26
tp1621
Rp1622
(I1
(I3
tp1623
g33
I00
S'\x00\x00\x00\x00\x00\x00\x00\x00\xf1h\xe3\x88\xb5\xf8\xa4>\x00\x00\x00\x00\x00\x004@'
p1624
tp1625
bsg50
g212
sg188
g61
(g182
S'\x01\x00\x00\x00\x00\x00\x00\x00'
p1626
tp1627
Rp1628
sg192
Nsg193
I2
sg194
g218
sbasg219
g304
sg236
(lp1629
sg228
g23
(g24
(I0
tp1630
g26
tp1631
Rp1632
(I1
(I2
I1
I1
tp1633
g33
I00
S'\xf9\xda\xf7`1\xe2\x81@GE0_\x0b9\xc7@'
p1634
tp1635
bsg229
g23
(g24
(I0
tp1636
g26
tp1637
Rp1638
(I1
(I2
I1
I1
tp1639
g33
I00
S'\xd9F\xc8\xf9\xd9\x1bm?\xa80\x05\xa8Y\xc7\x82?'
p1640
tp1641
bsg42
g318
sg255
(lp1642
g262
asg220
g23
(g24
(I0
tp1643
g26
tp1644
Rp1645
(I1
(I2
I1
I1
tp1646
g33
I00
S'\x1e\xc2\xb1\xcb\xd5+\x04@\xba6\xe9A\xc3\xfc&@'
p1647
tp1648
bsg238
g241
sg68
(lp1649
g0
(g72
g2
Ntp1650
Rp1651
(dp1652
g76
Nsg78
Nsg42
g246
sbasg227
g23
(g24
(I0
tp1653
g26
tp1654
Rp1655
(I1
(I2
I1
I1
tp1656
g33
I00
S'\xfa\xf8q\xa6\xa4]l@{\xfaWJ\xb9)\x90@'
p1657
tp1658
bsg251
g252
sg253
I01
sg254
I01
sg247
g61
(g182
S'\x01\x00\x00\x00\x00\x00\x00\x00'
p1659
tp1660
Rp1661
sg102
g341
sg271
I01
sbaa(lp1662
g798
ag0
(g164
g2
Ntp1663
Rp1664
(dp1665
g168
I00
sg169
(lp1666
g1537
ag1549
ag1561
asg219
g803
sg236
(lp1667
sg228
g23
(g24
(I0
tp1668
g26
tp1669
Rp1670
(I1
(I4
I1
I1
tp1671
g33
I00
S'z\x02(F\x16mV@#1\x18\x8e\xad\x88\x16?%5\xff\xd8\xb9\xa3~?\x13@A\x94\xa1\xf1\x9b@'
p1672
tp1673
bsg229
g23
(g24
(I0
tp1674
g26
tp1675
Rp1676
(I1
(I4
I1
I1
tp1677
g33
I00
S'\xea\x00\xb2\x0f\xe4\xbc^?1\xe9\xd3n\xdaR\x02?\xde\xa1\x05\x04\n\x0e\x18?\xd2j\xaa\xa3P\xaem?'
p1678
tp1679
bsg42
g318
sg255
(lp1680
g733
asg220
g23
(g24
(I0
tp1681
g26
tp1682
Rp1683
(I1
(I4
I1
I1
tp1684
g33
I00
S'\x15\xc0[ A\xf1\xef?\xdc\xe6\xc6\xf4\x84%N? \xe2nr4\x96\x82?P\xf5\x8d$\x90\xd4\x11@'
p1685
tp1686
bsg238
g716
sg68
(lp1687
g1587
asg227
g23
(g24
(I0
tp1688
g26
tp1689
Rp1690
(I1
(I4
I1
I1
tp1691
g33
I00
S'\x0f\x83\xc0\xca\xa1uV@S\xda\x1b|a2\xb5?\xfd\xed\xeb\xc09#\xea?\xf9\xa0g\xb3\xea\x12y@'
p1692
tp1693
bsg251
g725
sg253
I01
sg254
I01
sg247
g833
sg102
g836
sg271
I01
sbaa(lp1694
g838
ag0
(g164
g2
Ntp1695
Rp1696
(dp1697
g168
I00
sg169
(lp1698
g0
(g171
g2
Ntp1699
Rp1700
(dp1701
g175
g23
(g24
(I0
tp1702
g26
tp1703
Rp1704
(I1
(I1
tp1705
g182
I00
S"\x12'\x00\x00\x00\x00\x00\x00"
p1706
tp1707
bsg50
g393
sg188
g61
(g182
S'\x02\x00\x00\x00\x00\x00\x00\x00'
p1708
tp1709
Rp1710
sg192
Nsg193
I1
sg194
g399
sbag0
(g171
g2
Ntp1711
Rp1712
(dp1713
g175
g23
(g24
(I0
tp1714
g26
tp1715
Rp1716
(I1
(I3
tp1717
g33
I00
S'\x00\x00\x00\x00\x00\x00\x00\x00\xf1h\xe3\x88\xb5\xf8\xa4>\x00\x00\x00\x00\x00\x004@'
p1718
tp1719
bsg50
g864
sg188
g61
(g182
S'\x01\x00\x00\x00\x00\x00\x00\x00'
p1720
tp1721
Rp1722
sg192
Nsg193
I2
sg194
g415
sbasg219
g416
sg236
(lp1723
sg228
g23
(g24
(I0
tp1724
g26
tp1725
Rp1726
(I1
(I2
I1
I1
tp1727
g33
I00
S'\xc9\xf6\xb3\x81?\x87\x9f?\xdc]!\x10\xe8\xbe6@'
p1728
tp1729
bsg229
g23
(g24
(I0
tp1730
g26
tp1731
Rp1732
(I1
(I2
I1
I1
tp1733
g33
I00
S'\xaf\xc1\xcc\xa1\xbd\xb0E?\x81\xee\x91\xf4\xbb"X?'
p1734
tp1735
bsg42
g318
sg255
(lp1736
g269
asg220
g23
(g24
(I0
tp1737
g26
tp1738
Rp1739
(I1
(I2
I1
I1
tp1740
g33
I00
S'\r\xee\xf1q\xec\xd3\x91?:j\x83j\xbb\x14\xe0?'
p1741
tp1742
bsg238
g439
sg68
(lp1743
g0
(g72
g2
Ntp1744
Rp1745
(dp1746
g76
Nsg78
Nsg42
g444
sbasg227
g23
(g24
(I0
tp1747
g26
tp1748
Rp1749
(I1
(I2
I1
I1
tp1750
g33
I00
S"\xc26<\x80\x04\x12\xf9?a\xcd\xc8\x8d'\x9dF@"
p1751
tp1752
bsg251
g451
sg253
I01
sg254
I01
sg247
g61
(g182
S'\x01\x00\x00\x00\x00\x00\x00\x00'
p1753
tp1754
Rp1755
sg102
g457
sg271
I01
sbaatp1756
Rp1757
sg460
I00
sbaa(lp1758
g904
ag0
(g905
g2
Ntp1759
Rp1760
(dp1761
g17
g20
sg38
g39
sg40
Nsg41
g904
sg42
g43
sg44
g1085
sg163
g0
(g164
g2
Ntp1762
Rp1763
(dp1764
g168
I01
sg169
(lp1765
g0
(g171
g2
Ntp1766
Rp1767
(dp1768
g175
g23
(g24
(I0
tp1769
g26
tp1770
Rp1771
(I1
(I1
tp1772
g182
I00
S"\x12'\x00\x00\x00\x00\x00\x00"
p1773
tp1774
bsg50
g393
sg188
g61
(g182
S'\x02\x00\x00\x00\x00\x00\x00\x00'
p1775
tp1776
Rp1777
sg192
Nsg193
I1
sg194
g399
sbag0
(g171
g2
Ntp1778
Rp1779
(dp1780
g175
g23
(g24
(I0
tp1781
g26
tp1782
Rp1783
(I1
(I3
tp1784
g33
I00
S'\x00\x00\x00\x00\x00\x00\x00\x00\xf1h\xe3\x88\xb5\xf8\xa4>\x00\x00\x00\x00\x00\x004@'
p1785
tp1786
bsg50
g864
sg188
g61
(g182
S'\x01\x00\x00\x00\x00\x00\x00\x00'
p1787
tp1788
Rp1789
sg192
Nsg193
I2
sg194
g415
sbasg219
Nsg220
g23
(g24
(I0
tp1790
g26
tp1791
Rp1792
(I1
(I2
I1
I1
tp1793
g33
I00
S'\x00\x00\x00\x00\x00\x00\x00\x00\xcc\xff\xff\xff\xff\xff\xef?'
p1794
tp1795
bsg227
Nsg228
Nsg229
g23
(g24
(I0
tp1796
g26
tp1797
Rp1798
(I1
(I2
I1
I1
tp1799
g33
I00
S'\x00\x00\x00\x00\x00\x00\x00\x00$c\xdb\x853AY?'
p1800
tp1801
bsg42
g43
sg236
(lp1802
sg238
g439
sg68
(lp1803
g0
(g72
g2
Ntp1804
Rp1805
(dp1806
g76
Nsg78
Nsg42
g444
sbasg247
g61
(g182
S'\x01\x00\x00\x00\x00\x00\x00\x00'
p1807
tp1808
Rp1809
sg251
g451
sg253
I01
sg254
I00
sg255
(lp1810
g958
asg102
I10031
sg271
I01
sbsg272
g7
((lp1811
(lp1812
g961
ag0
(g164
g2
Ntp1813
Rp1814
(dp1815
g168
I00
sg169
(lp1816
g0
(g171
g2
Ntp1817
Rp1818
(dp1819
g175
g23
(g24
(I0
tp1820
g26
tp1821
Rp1822
(I1
(I1
tp1823
g182
I00
S"\x12'\x00\x00\x00\x00\x00\x00"
p1824
tp1825
bsg50
g975
sg188
g61
(g182
S'\x01\x00\x00\x00\x00\x00\x00\x00'
p1826
tp1827
Rp1828
sg192
Nsg193
I1
sg194
g981
sbag0
(g171
g2
Ntp1829
Rp1830
(dp1831
g175
g23
(g24
(I0
tp1832
g26
tp1833
Rp1834
(I1
(I2
tp1835
g33
I00
S'\x00\x00\x00\x00\x00\x00\x00\x00\x00\x00\x00\x00\x00\x004@'
p1836
tp1837
bsg50
g991
sg188
g61
(g182
S'\x01\x00\x00\x00\x00\x00\x00\x00'
p1838
tp1839
Rp1840
sg192
Nsg193
I1
sg194
g997
sbasg219
g998
sg236
(lp1841
sg228
g23
(g24
(I0
tp1842
g26
tp1843
Rp1844
(I1
(I1
I1
I1
tp1845
g33
I00
S'(\x89<\x0e\xe5\xcfW@'
p1846
tp1847
bsg229
g23
(g24
(I0
tp1848
g26
tp1849
Rp1850
(I1
(I1
I1
I1
tp1851
g33
I00
S'\xa5\xc0o#\xbf^R?'
p1852
tp1853
bsg42
g318
sg255
(lp1854
g1013
asg220
g23
(g24
(I0
tp1855
g26
tp1856
Rp1857
(I1
(I1
I1
I1
tp1858
g33
I00
S'F\xc1\xee\xac\x83u\xf0?'
p1859
tp1860
bsg238
g1022
sg68
(lp1861
g0
(g72
g2
Ntp1862
Rp1863
(dp1864
g76
Nsg78
Nsg42
g1027
sbasg227
g23
(g24
(I0
tp1865
g26
tp1866
Rp1867
(I1
(I1
I1
I1
tp1868
g33
I00
S'\xca\xbf/+A%W@'
p1869
tp1870
bsg251
g1034
sg253
I01
sg254
I01
sg247
g1037
sg102
g1040
sg271
I01
sbaa(lp1871
g1042
ag0
(g164
g2
Ntp1872
Rp1873
(dp1874
g168
I00
sg169
(lp1875
g1767
ag1779
asg219
g416
sg236
(lp1876
sg228
g23
(g24
(I0
tp1877
g26
tp1878
Rp1879
(I1
(I2
I1
I1
tp1880
g33
I00
S'\x00\x00\x00\x00\x00\x00\x00\x00\xe1\x88<\x0e\xe5\xcfW@'
p1881
tp1882
bsg229
g23
(g24
(I0
tp1883
g26
tp1884
Rp1885
(I1
(I2
I1
I1
tp1886
g33
I00
S'\x00\x00\x00\x00\x00\x00\x00\x00\xd1\x10p#\xbf^R?'
p1887
tp1888
bsg42
g318
sg255
(lp1889
g958
asg220
g23
(g24
(I0
tp1890
g26
tp1891
Rp1892
(I1
(I2
I1
I1
tp1893
g33
I00
S'\x00\x00\x00\x00\x00\x00\x00\x00+\xc1\xee\xac\x83u\xf0?'
p1894
tp1895
bsg238
g439
sg68
(lp1896
g1805
asg227
g23
(g24
(I0
tp1897
g26
tp1898
Rp1899
(I1
(I2
I1
I1
tp1900
g33
I00
S'\x00\x00\x00\x00\x00\x00\x00\x00\xa5\xbf/+A%W@'
p1901
tp1902
bsg251
g451
sg253
I01
sg254
I01
sg247
g1809
sg102
g457
sg271
I01
sbaatp1903
Rp1904
sg460
I00
sbaatp1905
Rp1906
aa(lp1907
I10003
ag7
((lp1908
(lp1909
g12
ag0
(g13
g2
Ntp1910
Rp1911
(dp1912
g17
g20
sg38
g39
sg40
Nsg41
g12
sg42
g43
sg44
g0
(g45
g2
Ntp1913
Rp1914
(dp1915
g49
Nsg50
g51
sg52
Nsg53
g0
(g54
g2
Ntp1916
Rp1917
(dp1918
g58
g59
sg60
g61
(g33
S'\xa8\xb5\x19iA\x02\xb3?'
p1919
tp1920
Rp1921
sg65
(lp1922
(VHH2O
p1923
V71t
p1924
tp1925
asg42
Vwater
p1926
sg68
g7
((lp1927
(lp1928
VB-10
p1929
a(g0
(g72
g2
Ntp1930
Rp1931
(dp1932
g76
V71c
p1933
sg78
Nsg42
g1929
sbg61
(g33
S'-\x95!d4\xc9\xe0>'
p1934
tp1935
Rp1936
g82
tp1937
aa(lp1938
VB-11
p1939
a(g0
(g72
g2
Ntp1940
Rp1941
(dp1942
g76
V71c
p1943
sg78
Nsg42
g1939
sbg61
(g33
S'\xdar\x0ex2\xe4\x00?'
p1944
tp1945
Rp1946
g82
tp1947
aa(lp1948
VH-1
p1949
a(g0
(g72
g2
Ntp1950
Rp1951
(dp1952
g76
V71c
p1953
sg78
Nsg42
g1949
sbg61
(g33
S'\xf9\xe3\x12\x8d\x14T\xa9?'
p1954
tp1955
Rp1956
g82
tp1957
aa(lp1958
VH-2
p1959
a(g0
(g72
g2
Ntp1960
Rp1961
(dp1962
g76
V71c
p1963
sg78
Nsg42
g1959
sbg61
(g33
S'%\x95\x9f\x939\xdd\xd7>'
p1964
tp1965
Rp1966
g82
tp1967
aa(lp1968
VO-16
p1969
a(g0
(g72
g2
Ntp1970
Rp1971
(dp1972
g76
V71c
p1973
sg78
Nsg42
g1969
sbg61
(g33
S'\xc4\xff\xd6\x9e\\R\x99?'
p1974
tp1975
Rp1976
g82
tp1977
aa(lp1978
VO-17
p1979
a(g0
(g72
g2
Ntp1980
Rp1981
(dp1982
g76
V71c
p1983
sg78
Nsg42
g1979
sbg61
(g33
S'H(LB\xc0\xb6\xe3>'
p1984
tp1985
Rp1986
g82
tp1987
aatp1988
Rp1989
sg96
g7
((lp1990
tp1991
Rp1992
sg100
I00
sg101
Nsg102
I10014
sbsg42
VFuel rod active region - 1.6% enr radial outer: water
p1993
sg104
g0
(g111
g2
Ntp1994
Rp1995
(dp1996
g115
g0
(g116
g2
Ntp1997
Rp1998
(dp1999
g50
g120
sg121
(dp2000
g123
g61
(g33
S'\x00\x00\x00\x00\x00\x00\x00\x00'
p2001
tp2002
Rp2003
sg127
g61
(g33
S'\x00\x00\x00\x00\x00\x00\x00\x00'
p2004
tp2005
Rp2006
sg131
g61
(g33
S'\xfb\xcb\xee\xc9\xc3B\xdd?'
p2007
tp2008
Rp2009
ssg42
VFuel clad OR
p2010
sg136
Vtransmission
p2011
sg102
I10006
sg138
(lp2012
g127
ag123
ag131
asbsg140
g141
sbsg162
Nsg102
I10003
sbsg163
g0
(g164
g2
Ntp2013
Rp2014
(dp2015
g168
I01
sg169
(lp2016
g0
(g171
g2
Ntp2017
Rp2018
(dp2019
g175
g23
(g24
(I0
tp2020
g26
tp2021
Rp2022
(I1
(I1
tp2023
g182
I00
S"\x13'\x00\x00\x00\x00\x00\x00"
p2024
tp2025
bsg50
g187
sg188
g61
(g182
S'\x02\x00\x00\x00\x00\x00\x00\x00'
p2026
tp2027
Rp2028
sg192
Nsg193
I1
sg194
g202
sbag0
(g171
g2
Ntp2029
Rp2030
(dp2031
g175
g23
(g24
(I0
tp2032
g26
tp2033
Rp2034
(I1
(I3
tp2035
g33
I00
S'\x00\x00\x00\x00\x00\x00\x00\x00\xf1h\xe3\x88\xb5\xf8\xa4>\x00\x00\x00\x00\x00\x004@'
p2036
tp2037
bsg50
g212
sg188
g61
(g182
S'\x01\x00\x00\x00\x00\x00\x00\x00'
p2038
tp2039
Rp2040
sg192
Nsg193
I2
sg194
g218
sbasg219
Nsg220
g23
(g24
(I0
tp2041
g26
tp2042
Rp2043
(I1
(I2
I1
I1
tp2044
g33
I00
S'4\x0f\xc7#\x8e\x83\xf8?$\xaaL\x06\xc2\xa0\xd2?'
p2045
tp2046
bsg227
Nsg228
Nsg229
g23
(g24
(I0
tp2047
g26
tp2048
Rp2049
(I1
(I2
I1
I1
tp2050
g33
I00
S'\xe7\xebp\x1e\xad\xb8m?\xc5\x92\xe0N\x1d\xbe7?'
p2051
tp2052
bsg42
g43
sg236
(lp2053
sg238
g241
sg68
(lp2054
g0
(g72
g2
Ntp2055
Rp2056
(dp2057
g76
Nsg78
Nsg42
g246
sbasg247
g61
(g182
S'\x01\x00\x00\x00\x00\x00\x00\x00'
p2058
tp2059
Rp2060
sg251
g252
sg253
I01
sg254
I00
sg255
(lp2061
g0
(g257
g2
Ntp2062
Rp2063
(dp2064
g261
g262
sg263
g264
sg265
g0
(g257
g2
Ntp2065
Rp2066
(dp2067
g261
g269
sg263
g161
sg265
g270
sbsbasg102
I10036
sg271
I01
sbsg272
g7
((lp2068
(lp2069
g275
ag0
(g164
g2
Ntp2070
Rp2071
(dp2072
g168
I00
sg169
(lp2073
g0
(g171
g2
Ntp2074
Rp2075
(dp2076
g175
g23
(g24
(I0
tp2077
g26
tp2078
Rp2079
(I1
(I1
tp2080
g182
I00
S"\x13'\x00\x00\x00\x00\x00\x00"
p2081
tp2082
bsg50
g187
sg188
g61
(g182
S'\x02\x00\x00\x00\x00\x00\x00\x00'
p2083
tp2084
Rp2085
sg192
Nsg193
I1
sg194
g202
sbag0
(g171
g2
Ntp2086
Rp2087
(dp2088
g175
g23
(g24
(I0
tp2089
g26
tp2090
Rp2091
(I1
(I3
tp2092
g33
I00
S'\x00\x00\x00\x00\x00\x00\x00\x00\xf1h\xe3\x88\xb5\xf8\xa4>\x00\x00\x00\x00\x00\x004@'
p2093
tp2094
bsg50
g212
sg188
g61
(g182
S'\x01\x00\x00\x00\x00\x00\x00\x00'
p2095
tp2096
Rp2097
sg192
Nsg193
I2
sg194
g218
sbasg219
g304
sg236
(lp2098
sg228
g23
(g24
(I0
tp2099
g26
tp2100
Rp2101
(I1
(I2
I1
I1
tp2102
g33
I00
S'\x1e\xc0\xf5\xc7\xe3\x9a\xa3@e\x05=\xa5\xb3\x97\xe4@'
p2103
tp2104
bsg229
g23
(g24
(I0
tp2105
g26
tp2106
Rp2107
(I1
(I2
I1
I1
tp2108
g33
I00
S'q\x06K\xac\xc7j|?\xbf\xcd\xd1\xddg2\x83?'
p2109
tp2110
bsg42
g318
sg255
(lp2111
g262
asg220
g23
(g24
(I0
tp2112
g26
tp2113
Rp2114
(I1
(I2
I1
I1
tp2115
g33
I00
S'\xac\xa5\xec=\xb9\x1e\x15@+K=\xa6\x9a\xa55@'
p2116
tp2117
bsg238
g241
sg68
(lp2118
g0
(g72
g2
Ntp2119
Rp2120
(dp2121
g76
Nsg78
Nsg42
g246
sbasg227
g23
(g24
(I0
tp2122
g26
tp2123
Rp2124
(I1
(I2
I1
I1
tp2125
g33
I00
S'\xfa\xc8\x14\x7f4\xb3}@\xb51\xc6y\xe1p\x9e@'
p2126
tp2127
bsg251
g252
sg253
I01
sg254
I01
sg247
g61
(g182
S'\x01\x00\x00\x00\x00\x00\x00\x00'
p2128
tp2129
Rp2130
sg102
g341
sg271
I01
sbaa(lp2131
g343
ag0
(g164
g2
Ntp2132
Rp2133
(dp2134
g168
I00
sg169
(lp2135
g2018
ag2030
asg219
g304
sg236
(lp2136
sg228
g23
(g24
(I0
tp2137
g26
tp2138
Rp2139
(I1
(I2
I1
I1
tp2140
g33
I00
S'\x9ax\x93\xa1\xa1M\xc5@\x10\xbd\xf7}\xe3\xde\xd2@'
p2141
tp2142
bsg229
g23
(g24
(I0
tp2143
g26
tp2144
Rp2145
(I1
(I2
I1
I1
tp2146
g33
I00
S"\xb3\x03j\x8a\xccl\x8f?\xe8\xc6\xc9'\xb7\xb8x?"
p2147
tp2148
bsg42
g318
sg255
(lp2149
g270
asg220
g23
(g24
(I0
tp2150
g26
tp2151
Rp2152
(I1
(I2
I1
I1
tp2153
g33
I00
S'\x9a\x8c=\x8e\xf9\x03&@\xb6\x11\x13\x854N-@'
p2154
tp2155
bsg238
g241
sg68
(lp2156
g2056
asg227
g23
(g24
(I0
tp2157
g26
tp2158
Rp2159
(I1
(I2
I1
I1
tp2160
g33
I00
S'\xb8\x8d\x06\xf0\x96\xf5\x8e@th\x91\xed\xfc\x9a\x94@'
p2161
tp2162
bsg251
g252
sg253
I01
sg254
I01
sg247
g61
(g182
S'\x01\x00\x00\x00\x00\x00\x00\x00'
p2163
tp2164
Rp2165
sg102
g341
sg271
I01
sbaa(lp2166
g379
ag0
(g164
g2
Ntp2167
Rp2168
(dp2169
g168
I00
sg169
(lp2170
g0
(g171
g2
Ntp2171
Rp2172
(dp2173
g175
g23
(g24
(I0
tp2174
g26
tp2175
Rp2176
(I1
(I1
tp2177
g182
I00
S"\x13'\x00\x00\x00\x00\x00\x00"
p2178
tp2179
bsg50
g393
sg188
g61
(g182
S'\x02\x00\x00\x00\x00\x00\x00\x00'
p2180
tp2181
Rp2182
sg192
Nsg193
I1
sg194
g399
sbag0
(g171
g2
Ntp2183
Rp2184
(dp2185
g175
g23
(g24
(I0
tp2186
g26
tp2187
Rp2188
(I1
(I3
tp2189
g33
I00
S'\x00\x00\x00\x00\x00\x00\x00\x00\xf1h\xe3\x88\xb5\xf8\xa4>\x00\x00\x00\x00\x00\x004@'
p2190
tp2191
bsg50
g409
sg188
g61
(g182
S'\x01\x00\x00\x00\x00\x00\x00\x00'
p2192
tp2193
Rp2194
sg192
Nsg193
I2
sg194
g415
sbasg219
g416
sg236
(lp2195
sg228
g23
(g24
(I0
tp2196
g26
tp2197
Rp2198
(I1
(I2
I1
I1
tp2199
g33
I00
S'/\taE\x86\xf4\x87@\x84\xa6N\x97i\x86\xb8@'
p2200
tp2201
bsg229
g23
(g24
(I0
tp2202
g26
tp2203
Rp2204
(I1
(I2
I1
I1
tp2205
g33
I00
S'Wz\xe5qf\xa2q?\x1dF\xa9q\xe12q?'
p2206
tp2207
bsg42
g318
sg255
(lp2208
g269
asg220
g23
(g24
(I0
tp2209
g26
tp2210
Rp2211
(I1
(I2
I1
I1
tp2212
g33
I00
S'QD\x0e&lX\x07@\xbc\xeb\x14BN\xb4 @'
p2213
tp2214
bsg238
g439
sg68
(lp2215
g0
(g72
g2
Ntp2216
Rp2217
(dp2218
g76
Nsg78
Nsg42
g444
sbasg227
g23
(g24
(I0
tp2219
g26
tp2220
Rp2221
(I1
(I2
I1
I1
tp2222
g33
I00
S'\t\x08\xc2\n,jp@\x81k\xed\x0c\x8e}\x87@'
p2223
tp2224
bsg251
g451
sg253
I01
sg254
I01
sg247
g61
(g182
S'\x01\x00\x00\x00\x00\x00\x00\x00'
p2225
tp2226
Rp2227
sg102
g457
sg271
I01
sbaatp2228
Rp2229
sg460
I00
sbaa(lp2230
g462
ag0
(g463
g2
Ntp2231
Rp2232
(dp2233
g17
g20
sg38
g39
sg40
Nsg41
g467
sg42
g43
sg44
g1914
sg163
g0
(g164
g2
Ntp2234
Rp2235
(dp2236
g168
I01
sg169
(lp2237
g0
(g171
g2
Ntp2238
Rp2239
(dp2240
g175
g23
(g24
(I0
tp2241
g26
tp2242
Rp2243
(I1
(I1
tp2244
g182
I00
S"\x13'\x00\x00\x00\x00\x00\x00"
p2245
tp2246
bsg50
g481
sg188
g61
(g182
S'\x02\x00\x00\x00\x00\x00\x00\x00'
p2247
tp2248
Rp2249
sg192
Nsg193
I1
sg194
g487
sbag0
(g171
g2
Ntp2250
Rp2251
(dp2252
g175
g23
(g24
(I0
tp2253
g26
tp2254
Rp2255
(I1
(I3
tp2256
g33
I00
S'\x00\x00\x00\x00\x00\x00\x00\x00\xf1h\xe3\x88\xb5\xf8\xa4>\x00\x00\x00\x00\x00\x004@'
p2257
tp2258
bsg50
g497
sg188
g61
(g182
S'\x01\x00\x00\x00\x00\x00\x00\x00'
p2259
tp2260
Rp2261
sg192
Nsg193
I2
sg194
g503
sbasg219
Nsg220
g23
(g24
(I0
tp2262
g26
tp2263
Rp2264
(I1
(I2
I1
I1
tp2265
g33
I00
S'\x00\x00\x00\x00\x00\x00\x00\x00\x00\x00\x00\x00\x00\x00\x00\x00'
p2266
tp2267
bsg227
Nsg228
Nsg229
g23
(g24
(I0
tp2268
g26
tp2269
Rp2270
(I1
(I2
I1
I1
tp2271
g33
I00
S'\x00\x00\x00\x00\x00\x00\x00\x00\x00\x00\x00\x00\x00\x00\x00\x00'
p2272
tp2273
bsg42
g43
sg236
(lp2274
sg238
g519
sg68
(lp2275
g0
(g72
g2
Ntp2276
Rp2277
(dp2278
g76
Nsg78
Nsg42
g524
sbasg247
g61
(g182
S'\x01\x00\x00\x00\x00\x00\x00\x00'
p2279
tp2280
Rp2281
sg251
g528
sg253
I01
sg254
I00
sg255
(lp2282
g0
(g257
g2
Ntp2283
Rp2284
(dp2285
g261
g533
sg263
g264
sg265
g534
sbasg102
I10039
sg271
I01
sbsg272
g7
((lp2286
(lp2287
g275
ag0
(g164
g2
Ntp2288
Rp2289
(dp2290
g168
I00
sg169
(lp2291
g0
(g171
g2
Ntp2292
Rp2293
(dp2294
g175
g23
(g24
(I0
tp2295
g26
tp2296
Rp2297
(I1
(I1
tp2298
g182
I00
S"\x13'\x00\x00\x00\x00\x00\x00"
p2299
tp2300
bsg50
g481
sg188
g61
(g182
S'\x02\x00\x00\x00\x00\x00\x00\x00'
p2301
tp2302
Rp2303
sg192
Nsg193
I1
sg194
g487
sbag0
(g171
g2
Ntp2304
Rp2305
(dp2306
g175
g23
(g24
(I0
tp2307
g26
tp2308
Rp2309
(I1
(I3
tp2310
g33
I00
S'\x00\x00\x00\x00\x00\x00\x00\x00\xf1h\xe3\x88\xb5\xf8\xa4>\x00\x00\x00\x00\x00\x004@'
p2311
tp2312
bsg50
g497
sg188
g61
(g182
S'\x01\x00\x00\x00\x00\x00\x00\x00'
p2313
tp2314
Rp2315
sg192
Nsg193
I2
sg194
g503
sbasg219
g565
sg236
(lp2316
sg228
g23
(g24
(I0
tp2317
g26
tp2318
Rp2319
(I1
(I2
I1
I1
tp2320
g33
I00
S'\xacq\x1e\xe1\x90\x99\xa3@\xe5\x98&\xe3\x18\x92\xe4@'
p2321
tp2322
bsg229
g23
(g24
(I0
tp2323
g26
tp2324
Rp2325
(I1
(I2
I1
I1
tp2326
g33
I00
S'\xd8\xdeR\xd7*f{?\xca\xc2b\x12Uk\x85?'
p2327
tp2328
bsg42
g318
sg255
(lp2329
g533
asg220
g23
(g24
(I0
tp2330
g26
tp2331
Rp2332
(I1
(I2
I1
I1
tp2333
g33
I00
S'\x87\xa1\xef#\n\x1e\x15@\xa9d{m\xa5\xa25@'
p2334
tp2335
bsg238
g519
sg68
(lp2336
g0
(g72
g2
Ntp2337
Rp2338
(dp2339
g76
Nsg78
Nsg42
g524
sbasg227
g23
(g24
(I0
tp2340
g26
tp2341
Rp2342
(I1
(I2
I1
I1
tp2343
g33
I00
S'&\xfb\x88B>\xb2}@\x8e\x85\xf5\xa1\xb8l\x9e@'
p2344
tp2345
bsg251
g528
sg253
I01
sg254
I01
sg247
g61
(g182
S'\x01\x00\x00\x00\x00\x00\x00\x00'
p2346
tp2347
Rp2348
sg102
g601
sg271
I01
sbaa(lp2349
g603
ag0
(g164
g2
Ntp2350
Rp2351
(dp2352
g168
I00
sg169
(lp2353
g2239
ag2251
asg219
g565
sg236
(lp2354
sg228
g23
(g24
(I0
tp2355
g26
tp2356
Rp2357
(I1
(I2
I1
I1
tp2358
g33
I00
S'\x00\x00\x00\x00\x00\x00\x00\x00\x00\x00\x00\x00\x00\x00\x00\x00'
p2359
tp2360
bsg229
g23
(g24
(I0
tp2361
g26
tp2362
Rp2363
(I1
(I2
I1
I1
tp2364
g33
I00
S'\x00\x00\x00\x00\x00\x00\x00\x00\x00\x00\x00\x00\x00\x00\x00\x00'
p2365
tp2366
bsg42
g318
sg255
(lp2367
g534
asg220
g23
(g24
(I0
tp2368
g26
tp2369
Rp2370
(I1
(I2
I1
I1
tp2371
g33
I00
S'\x00\x00\x00\x00\x00\x00\x00\x00\x00\x00\x00\x00\x00\x00\x00\x00'
p2372
tp2373
bsg238
g519
sg68
(lp2374
g2277
asg227
g23
(g24
(I0
tp2375
g26
tp2376
Rp2377
(I1
(I2
I1
I1
tp2378
g33
I00
S'\x00\x00\x00\x00\x00\x00\x00\x00\x00\x00\x00\x00\x00\x00\x00\x00'
p2379
tp2380
bsg251
g528
sg253
I01
sg254
I01
sg247
g61
(g182
S'\x01\x00\x00\x00\x00\x00\x00\x00'
p2381
tp2382
Rp2383
sg102
g601
sg271
I01
sbaatp2384
Rp2385
sg460
I00
sbaa(lp2386
g641
ag0
(g642
g2
Ntp2387
Rp2388
(dp2389
g17
g20
sg38
g39
sg40
Nsg41
g646
sg42
g43
sg647
g648
sg44
g1914
sg163
g0
(g164
g2
Ntp2390
Rp2391
(dp2392
g168
I01
sg169
(lp2393
g0
(g171
g2
Ntp2394
Rp2395
(dp2396
g175
g23
(g24
(I0
tp2397
g26
tp2398
Rp2399
(I1
(I1
tp2400
g182
I00
S"\x13'\x00\x00\x00\x00\x00\x00"
p2401
tp2402
bsg50
g662
sg188
g61
(g182
S'\x04\x00\x00\x00\x00\x00\x00\x00'
p2403
tp2404
Rp2405
sg192
Nsg193
I1
sg194
g668
sbag0
(g171
g2
Ntp2406
Rp2407
(dp2408
g175
g23
(g24
(I0
tp2409
g26
tp2410
Rp2411
(I1
(I3
tp2412
g33
I00
S'\x00\x00\x00\x00\x00\x00\x00\x00\xf1h\xe3\x88\xb5\xf8\xa4>\x00\x00\x00\x00\x00\x004@'
p2413
tp2414
bsg50
g678
sg188
g61
(g182
S'\x02\x00\x00\x00\x00\x00\x00\x00'
p2415
tp2416
Rp2417
sg192
Nsg193
I2
sg194
g684
sbag0
(g171
g2
Ntp2418
Rp2419
(dp2420
g175
g23
(g24
(I0
tp2421
g26
tp2422
Rp2423
(I1
(I3
tp2424
g33
I00
S'\x00\x00\x00\x00\x00\x00\x00\x00\xf1h\xe3\x88\xb5\xf8\xa4>\x00\x00\x00\x00\x00\x004@'
p2425
tp2426
bsg50
g694
sg188
g61
(g182
S'\x01\x00\x00\x00\x00\x00\x00\x00'
p2427
tp2428
Rp2429
sg192
Nsg193
I2
sg194
g700
sbasg219
Nsg220
g23
(g24
(I0
tp2430
g26
tp2431
Rp2432
(I1
(I4
I1
I1
tp2433
g33
I00
S'\xc9\xba\xbb\xa6\xfd\xfb\xf7?\x05\xfb\xfb\x9e\x0c;<?\x92\x0f\xb9\x13\x9e+\xa0?\xa9o\x88\xf8\xae\x8f\xd0?'
p2434
tp2435
bsg227
Nsg228
Nsg229
g23
(g24
(I0
tp2436
g26
tp2437
Rp2438
(I1
(I4
I1
I1
tp2439
g33
I00
S'\xc0C\x17\xaaxmm?tk\xe86\xc8\x88\xe6>\xbb\xf2c$\xe7d\xfc>\xf5\xdaLVC\x027?'
p2440
tp2441
bsg42
g43
sg236
(lp2442
sg238
g716
sg68
(lp2443
g0
(g72
g2
Ntp2444
Rp2445
(dp2446
g76
Nsg78
Nsg42
g721
sbasg247
g61
(g182
S'\x01\x00\x00\x00\x00\x00\x00\x00'
p2447
tp2448
Rp2449
sg251
g725
sg253
I01
sg254
I00
sg255
(lp2450
g0
(g257
g2
Ntp2451
Rp2452
(dp2453
g261
g262
sg263
g264
sg265
g0
(g257
g2
Ntp2454
Rp2455
(dp2456
g261
g269
sg263
g161
sg265
g733
sbsbasg102
I10044
sg271
I01
sbsg272
g7
((lp2457
(lp2458
g275
ag0
(g164
g2
Ntp2459
Rp2460
(dp2461
g168
I00
sg169
(lp2462
g0
(g171
g2
Ntp2463
Rp2464
(dp2465
g175
g23
(g24
(I0
tp2466
g26
tp2467
Rp2468
(I1
(I1
tp2469
g182
I00
S"\x13'\x00\x00\x00\x00\x00\x00"
p2470
tp2471
bsg50
g187
sg188
g61
(g182
S'\x02\x00\x00\x00\x00\x00\x00\x00'
p2472
tp2473
Rp2474
sg192
Nsg193
I1
sg194
g202
sbag0
(g171
g2
Ntp2475
Rp2476
(dp2477
g175
g23
(g24
(I0
tp2478
g26
tp2479
Rp2480
(I1
(I3
tp2481
g33
I00
S'\x00\x00\x00\x00\x00\x00\x00\x00\xf1h\xe3\x88\xb5\xf8\xa4>\x00\x00\x00\x00\x00\x004@'
p2482
tp2483
bsg50
g212
sg188
g61
(g182
S'\x01\x00\x00\x00\x00\x00\x00\x00'
p2484
tp2485
Rp2486
sg192
Nsg193
I2
sg194
g218
sbasg219
g304
sg236
(lp2487
sg228
g23
(g24
(I0
tp2488
g26
tp2489
Rp2490
(I1
(I2
I1
I1
tp2491
g33
I00
S'\x1e\xc0\xf5\xc7\xe3\x9a\xa3@e\x05=\xa5\xb3\x97\xe4@'
p2492
tp2493
bsg229
g23
(g24
(I0
tp2494
g26
tp2495
Rp2496
(I1
(I2
I1
I1
tp2497
g33
I00
S'q\x06K\xac\xc7j|?\xbf\xcd\xd1\xddg2\x83?'
p2498
tp2499
bsg42
g318
sg255
(lp2500
g262
asg220
g23
(g24
(I0
tp2501
g26
tp2502
Rp2503
(I1
(I2
I1
I1
tp2504
g33
I00
S'\xac\xa5\xec=\xb9\x1e\x15@+K=\xa6\x9a\xa55@'
p2505
tp2506
bsg238
g241
sg68
(lp2507
g0
(g72
g2
Ntp2508
Rp2509
(dp2510
g76
Nsg78
Nsg42
g246
sbasg227
g23
(g24
(I0
tp2511
g26
tp2512
Rp2513
(I1
(I2
I1
I1
tp2514
g33
I00
S'\xfa\xc8\x14\x7f4\xb3}@\xb51\xc6y\xe1p\x9e@'
p2515
tp2516
bsg251
g252
sg253
I01
sg254
I01
sg247
g61
(g182
S'\x01\x00\x00\x00\x00\x00\x00\x00'
p2517
tp2518
Rp2519
sg102
g341
sg271
I01
sbaa(lp2520
g798
ag0
(g164
g2
Ntp2521
Rp2522
(dp2523
g168
I00
sg169
(lp2524
g2395
ag2407
ag2419
asg219
g803
sg236
(lp2525
sg228
g23
(g24
(I0
tp2526
g26
tp2527
Rp2528
(I1
(I4
I1
I1
tp2529
g33
I00
S'M\xc9\xa4\xcc\xde\xa1\xc4@\xcd\x16\xce==\x19@?]ht(\xbf\x08E@e\xcf\x96\xda\xf5\x1c\xd1@'
p2530
tp2531
bsg229
g23
(g24
(I0
tp2532
g26
tp2533
Rp2534
(I1
(I4
I1
I1
tp2535
g33
I00
S'\x9e\xa4\xc6^\xdeC\x8f?\x1eT\xda\xb89\xb4\r?\xcb\xf7\xee\\\xfa\x93@?\x853`\xdf+\xf8w?'
p2536
tp2537
bsg42
g318
sg255
(lp2538
g733
asg220
g23
(g24
(I0
tp2539
g26
tp2540
Rp2541
(I1
(I4
I1
I1
tp2542
g33
I00
S'\xb59\xf7\x93\x80\xaa%@\xcc\xb5,\x10\xdb\xa1b?\x04A\xe2\x93\x9d\xe0\xe5?\t\x15\xe3\xfcM\xe8+@'
p2543
tp2544
bsg238
g716
sg68
(lp2545
g2445
asg227
g23
(g24
(I0
tp2546
g26
tp2547
Rp2548
(I1
(I4
I1
I1
tp2549
g33
I00
S"'\xa9\x13\xd0\xc4w\x8e@\xa7\xdf\xbe\x0e\x9c3\xca?m+\xf6\x97\xdd\xc3N@\xca\xaa\xcf\xd5V\x9f\x93@"
p2550
tp2551
bsg251
g725
sg253
I01
sg254
I01
sg247
g833
sg102
g836
sg271
I01
sbaa(lp2552
g838
ag0
(g164
g2
Ntp2553
Rp2554
(dp2555
g168
I00
sg169
(lp2556
g0
(g171
g2
Ntp2557
Rp2558
(dp2559
g175
g23
(g24
(I0
tp2560
g26
tp2561
Rp2562
(I1
(I1
tp2563
g182
I00
S"\x13'\x00\x00\x00\x00\x00\x00"
p2564
tp2565
bsg50
g393
sg188
g61
(g182
S'\x02\x00\x00\x00\x00\x00\x00\x00'
p2566
tp2567
Rp2568
sg192
Nsg193
I1
sg194
g399
sbag0
(g171
g2
Ntp2569
Rp2570
(dp2571
g175
g23
(g24
(I0
tp2572
g26
tp2573
Rp2574
(I1
(I3
tp2575
g33
I00
S'\x00\x00\x00\x00\x00\x00\x00\x00\xf1h\xe3\x88\xb5\xf8\xa4>\x00\x00\x00\x00\x00\x004@'
p2576
tp2577
bsg50
g864
sg188
g61
(g182
S'\x01\x00\x00\x00\x00\x00\x00\x00'
p2578
tp2579
Rp2580
sg192
Nsg193
I2
sg194
g415
sbasg219
g416
sg236
(lp2581
sg228
g23
(g24
(I0
tp2582
g26
tp2583
Rp2584
(I1
(I2
I1
I1
tp2585
g33
I00
S'/\taE\x86\xf4\x87@\x84\xa6N\x97i\x86\xb8@'
p2586
tp2587
bsg229
g23
(g24
(I0
tp2588
g26
tp2589
Rp2590
(I1
(I2
I1
I1
tp2591
g33
I00
S'Wz\xe5qf\xa2q?\x1dF\xa9q\xe12q?'
p2592
tp2593
bsg42
g318
sg255
(lp2594
g269
asg220
g23
(g24
(I0
tp2595
g26
tp2596
Rp2597
(I1
(I2
I1
I1
tp2598
g33
I00
S'QD\x0e&lX\x07@\xbc\xeb\x14BN\xb4 @'
p2599
tp2600
bsg238
g439
sg68
(lp2601
g0
(g72
g2
Ntp2602
Rp2603
(dp2604
g76
Nsg78
Nsg42
g444
sbasg227
g23
(g24
(I0
tp2605
g26
tp2606
Rp2607
(I1
(I2
I1
I1
tp2608
g33
I00
S'\t\x08\xc2\n,jp@\x81k\xed\x0c\x8e}\x87@'
p2609
tp2610
bsg251
g451
sg253
I01
sg254
I01
sg247
g61
(g182
S'\x01\x00\x00\x00\x00\x00\x00\x00'
p2611
tp2612
Rp2613
sg102
g457
sg271
I01
sbaatp2614
Rp2615
sg460
I00
sbaa(lp2616
g904
ag0
(g905
g2
Ntp2617
Rp2618
(dp2619
g17
g20
sg38
g39
sg40
Nsg41
g904
sg42
g43
sg44
g1914
sg163
g0
(g164
g2
Ntp2620
Rp2621
(dp2622
g168
I01
sg169
(lp2623
g0
(g171
g2
Ntp2624
Rp2625
(dp2626
g175
g23
(g24
(I0
tp2627
g26
tp2628
Rp2629
(I1
(I1
tp2630
g182
I00
S"\x13'\x00\x00\x00\x00\x00\x00"
p2631
tp2632
bsg50
g393
sg188
g61
(g182
S'\x02\x00\x00\x00\x00\x00\x00\x00'
p2633
tp2634
Rp2635
sg192
Nsg193
I1
sg194
g399
sbag0
(g171
g2
Ntp2636
Rp2637
(dp2638
g175
g23
(g24
(I0
tp2639
g26
tp2640
Rp2641
(I1
(I3
tp2642
g33
I00
S'\x00\x00\x00\x00\x00\x00\x00\x00\xf1h\xe3\x88\xb5\xf8\xa4>\x00\x00\x00\x00\x00\x004@'
p2643
tp2644
bsg50
g864
sg188
g61
(g182
S'\x01\x00\x00\x00\x00\x00\x00\x00'
p2645
tp2646
Rp2647
sg192
Nsg193
I2
sg194
g415
sbasg219
Nsg220
g23
(g24
(I0
tp2648
g26
tp2649
Rp2650
(I1
(I2
I1
I1
tp2651
g33
I00
S'\x00\x00\x00\x00\x00\x00\x00\x00\x00\x00\x00\x00\x00\x00\x00\x00'
p2652
tp2653
bsg227
Nsg228
Nsg229
g23
(g24
(I0
tp2654
g26
tp2655
Rp2656
(I1
(I2
I1
I1
tp2657
g33
I00
S'\x00\x00\x00\x00\x00\x00\x00\x00\x00\x00\x00\x00\x00\x00\x00\x00'
p2658
tp2659
bsg42
g43
sg236
(lp2660
sg238
g439
sg68
(lp2661
g0
(g72
g2
Ntp2662
Rp2663
(dp2664
g76
Nsg78
Nsg42
g444
sbasg247
g61
(g182
S'\x01\x00\x00\x00\x00\x00\x00\x00'
p2665
tp2666
Rp2667
sg251
g451
sg253
I01
sg254
I00
sg255
(lp2668
g958
asg102
I10047
sg271
I01
sbsg272
g7
((lp2669
(lp2670
g961
ag0
(g164
g2
Ntp2671
Rp2672
(dp2673
g168
I00
sg169
(lp2674
g0
(g171
g2
Ntp2675
Rp2676
(dp2677
g175
g23
(g24
(I0
tp2678
g26
tp2679
Rp2680
(I1
(I1
tp2681
g182
I00
S"\x13'\x00\x00\x00\x00\x00\x00"
p2682
tp2683
bsg50
g975
sg188
g61
(g182
S'\x01\x00\x00\x00\x00\x00\x00\x00'
p2684
tp2685
Rp2686
sg192
Nsg193
I1
sg194
g981
sbag0
(g171
g2
Ntp2687
Rp2688
(dp2689
g175
g23
(g24
(I0
tp2690
g26
tp2691
Rp2692
(I1
(I2
tp2693
g33
I00
S'\x00\x00\x00\x00\x00\x00\x00\x00\x00\x00\x00\x00\x00\x004@'
p2694
tp2695
bsg50
g991
sg188
g61
(g182
S'\x01\x00\x00\x00\x00\x00\x00\x00'
p2696
tp2697
Rp2698
sg192
Nsg193
I1
sg194
g997
sbasg219
g998
sg236
(lp2699
sg228
g23
(g24
(I0
tp2700
g26
tp2701
Rp2702
(I1
(I1
I1
I1
tp2703
g33
I00
S'\x00\x00\x00\x00\x00\x00\x00\x00'
p2704
tp2705
bsg229
g23
(g24
(I0
tp2706
g26
tp2707
Rp2708
(I1
(I1
I1
I1
tp2709
g33
I00
S'\x00\x00\x00\x00\x00\x00\x00\x00'
p2710
tp2711
bsg42
g318
sg255
(lp2712
g1013
asg220
g23
(g24
(I0
tp2713
g26
tp2714
Rp2715
(I1
(I1
I1
I1
tp2716
g33
I00
S'\x00\x00\x00\x00\x00\x00\x00\x00'
p2717
tp2718
bsg238
g1022
sg68
(lp2719
g0
(g72
g2
Ntp2720
Rp2721
(dp2722
g76
Nsg78
Nsg42
g1027
sbasg227
g23
(g24
(I0
tp2723
g26
tp2724
Rp2725
(I1
(I1
I1
I1
tp2726
g33
I00
S'\x00\x00\x00\x00\x00\x00\x00\x00'
p2727
tp2728
bsg251
g1034
sg253
I01
sg254
I01
sg247
g1037
sg102
g1040
sg271
I01
sbaa(lp2729
g1042
ag0
(g164
g2
Ntp2730
Rp2731
(dp2732
g168
I00
sg169
(lp2733
g2625
ag2637
asg219
g416
sg236
(lp2734
sg228
g23
(g24
(I0
tp2735
g26
tp2736
Rp2737
(I1
(I2
I1
I1
tp2738
g33
I00
S'\x00\x00\x00\x00\x00\x00\x00\x00\x00\x00\x00\x00\x00\x00\x00\x00'
p2739
tp2740
bsg229
g23
(g24
(I0
tp2741
g26
tp2742
Rp2743
(I1
(I2
I1
I1
tp2744
g33
I00
S'\x00\x00\x00\x00\x00\x00\x00\x00\x00\x00\x00\x00\x00\x00\x00\x00'
p2745
tp2746
bsg42
g318
sg255
(lp2747
g958
asg220
g23
(g24
(I0
tp2748
g26
tp2749
Rp2750
(I1
(I2
I1
I1
tp2751
g33
I00
S'\x00\x00\x00\x00\x00\x00\x00\x00\x00\x00\x00\x00\x00\x00\x00\x00'
p2752
tp2753
bsg238
g439
sg68
(lp2754
g2663
asg227
g23
(g24
(I0
tp2755
g26
tp2756
Rp2757
(I1
(I2
I1
I1
tp2758
g33
I00
S'\x00\x00\x00\x00\x00\x00\x00\x00\x00\x00\x00\x00\x00\x00\x00\x00'
p2759
tp2760
bsg251
g451
sg253
I01
sg254
I01
sg247
g2667
sg102
g457
sg271
I01
sbaatp2761
Rp2762
sg460
I00
sbaatp2763
Rp2764
aa(lp2765
I10004
ag7
((lp2766
(lp2767
g12
ag0
(g13
g2
Ntp2768
Rp2769
(dp2770
g17
g20
sg38
g39
sg40
Nsg41
g12
sg42
g43
sg44
g0
(g45
g2
Ntp2771
Rp2772
(dp2773
g49
Nsg50
g51
sg52
Nsg53
g0
(g54
g2
Ntp2774
Rp2775
(dp2776
g58
g59
sg60
g61
(g33
S'6|~\xea\xa3=\xa6?'
p2777
tp2778
Rp2779
sg65
(lp2780
sg42
Vzirc
p2781
sg68
g7
((lp2782
(lp2783
VO-16
p2784
a(g0
(g72
g2
Ntp2785
Rp2786
(dp2787
g76
V71c
p2788
sg78
Nsg42
g2784
sbg61
(g33
S'\xcb\xec\x1e\x85c04?'
p2789
tp2790
Rp2791
g82
tp2792
aa(lp2793
VO-17
p2794
a(g0
(g72
g2
Ntp2795
Rp2796
(dp2797
g76
V71c
p2798
sg78
Nsg42
g2794
sbg61
(g33
S'\x1a\x801B\x8do\x7f>'
p2799
tp2800
Rp2801
g82
tp2802
aa(lp2803
VCr-50
p2804
a(g0
(g72
g2
Ntp2805
Rp2806
(dp2807
g76
V71c
p2808
sg78
Nsg42
g2804
sbg61
(g33
S'\xe6R\x19\xf0\x86\xa6\xcb>'
p2809
tp2810
Rp2811
g82
tp2812
aa(lp2813
VCr-52
p2814
a(g0
(g72
g2
Ntp2815
Rp2816
(dp2817
g76
V71c
p2818
sg78
Nsg42
g2814
sbg61
(g33
S'H\x90)\xcb\xb2\xa9\x10?'
p2819
tp2820
Rp2821
g82
tp2822
aa(lp2823
VCr-53
p2824
a(g0
(g72
g2
Ntp2825
Rp2826
(dp2827
g76
V71c
p2828
sg78
Nsg42
g2824
sbg61
(g33
S'/\xbd\xc2\xa4";\xde>'
p2829
tp2830
Rp2831
g82
tp2832
aa(lp2833
VCr-54
p2834
a(g0
(g72
g2
Ntp2835
Rp2836
(dp2837
g76
V71c
p2838
sg78
Nsg42
g2834
sbg61
(g33
S'\xe8U_\x05\xbd\x19\xbe>'
p2839
tp2840
Rp2841
g82
tp2842
aa(lp2843
VFe-54
p2844
a(g0
(g72
g2
Ntp2845
Rp2846
(dp2847
g76
V71c
p2848
sg78
Nsg42
g2844
sbg61
(g33
S'Lc\x1cy\x9c.\xe2>'
p2849
tp2850
Rp2851
g82
tp2852
aa(lp2853
VFe-56
p2854
a(g0
(g72
g2
Ntp2855
Rp2856
(dp2857
g76
V71c
p2858
sg78
Nsg42
g2854
sbg61
(g33
S'f\xb12\x12\xb7\xd6!?'
p2859
tp2860
Rp2861
g82
tp2862
aa(lp2863
VFe-57
p2864
a(g0
(g72
g2
Ntp2865
Rp2866
(dp2867
g76
V71c
p2868
sg78
Nsg42
g2864
sbg61
(g33
S'\xc1\xd1X\x95\xc8]\xca>'
p2869
tp2870
Rp2871
g82
tp2872
aa(lp2873
VFe-58
p2874
a(g0
(g72
g2
Ntp2875
Rp2876
(dp2877
g76
V71c
p2878
sg78
Nsg42
g2874
sbg61
(g33
S'\x8b\x89\x9b\x9f-\x12\x9c>'
p2879
tp2880
Rp2881
g82
tp2882
aa(lp2883
VZr-90
p2884
a(g0
(g72
g2
Ntp2885
Rp2886
(dp2887
g76
V71c
p2888
sg78
Nsg42
g2884
sbg61
(g33
S'Q\xe5bx\xf8Y\x96?'
p2889
tp2890
Rp2891
g82
tp2892
aa(lp2893
VZr-91
p2894
a(g0
(g72
g2
Ntp2895
Rp2896
(dp2897
g76
V71c
p2898
sg78
Nsg42
g2894
sbg61
(g33
S'\xeb\xb4E\x15K\x7fs?'
p2899
tp2900
Rp2901
g82
tp2902
aa(lp2903
VZr-92
p2904
a(g0
(g72
g2
Ntp2905
Rp2906
(dp2907
g76
V71c
p2908
sg78
Nsg42
g2904
sbg61
(g33
S'\x17\x87.KK\xcd}?'
p2909
tp2910
Rp2911
g82
tp2912
aa(lp2913
VZr-94
p2914
a(g0
(g72
g2
Ntp2915
Rp2916
(dp2917
g76
V71c
p2918
sg78
Nsg42
g2914
sbg61
(g33
S'\xfc\xc7Hv\x9c3~?'
p2919
tp2920
Rp2921
g82
tp2922
aa(lp2923
VZr-96
p2924
a(g0
(g72
g2
Ntp2925
Rp2926
(dp2927
g76
V71c
p2928
sg78
Nsg42
g2924
sbg61
(g33
S'p{\x91jevS?'
p2929
tp2930
Rp2931
g82
tp2932
aa(lp2933
VSn-112
p2934
a(g0
(g72
g2
Ntp2935
Rp2936
(dp2937
g76
V71c
p2938
sg78
Nsg42
g2934
sbg61
(g33
S'"\xfb X.\x9a\xd3>'
p2939
tp2940
Rp2941
g82
tp2942
aa(lp2943
VSn-114
p2944
a(g0
(g72
g2
Ntp2945
Rp2946
(dp2947
g76
V71c
p2948
sg78
Nsg42
g2944
sbg61
(g33
S'\x0f\x83\xbbj\xdd\xac\xca>'
p2949
tp2950
Rp2951
g82
tp2952
aa(lp2953
VSn-115
p2954
a(g0
(g72
g2
Ntp2955
Rp2956
(dp2957
g76
V71c
p2958
sg78
Nsg42
g2954
sbg61
(g33
S'\x08G\x92\xda\xcc{\xbb>'
p2959
tp2960
Rp2961
g82
tp2962
aa(lp2963
VSn-116
p2964
a(g0
(g72
g2
Ntp2965
Rp2966
(dp2967
g76
V71c
p2968
sg78
Nsg42
g2964
sbg61
(g33
S'\r\x8c\xdf\xb4O]\x12?'
p2969
tp2970
Rp2971
g82
tp2972
aa(lp2973
VSn-117
p2974
a(g0
(g72
g2
Ntp2975
Rp2976
(dp2977
g76
V71c
p2978
sg78
Nsg42
g2974
sbg61
(g33
S'\x143+|rf\x03?'
p2979
tp2980
Rp2981
g82
tp2982
aa(lp2983
VSn-118
p2984
a(g0
(g72
g2
Ntp2985
Rp2986
(dp2987
g76
V71c
p2988
sg78
Nsg42
g2984
sbg61
(g33
S'\x970u05\x97\x1e?'
p2989
tp2990
Rp2991
g82
tp2992
aa(lp2993
VSn-119
p2994
a(g0
(g72
g2
Ntp2995
Rp2996
(dp2997
g76
V71c
p2998
sg78
Nsg42
g2994
sbg61
(g33
S'o\xfc6b\xeb\xb2\x05?'
p2999
tp3000
Rp3001
g82
tp3002
aa(lp3003
VSn-120
p3004
a(g0
(g72
g2
Ntp3005
Rp3006
(dp3007
g76
V71c
p3008
sg78
Nsg42
g3004
sbg61
(g33
S',\x10\xb0j&\x93$?'
p3009
tp3010
Rp3011
g82
tp3012
aa(lp3013
VSn-122
p3014
a(g0
(g72
g2
Ntp3015
Rp3016
(dp3017
g76
V71c
p3018
sg78
Nsg42
g3014
sbg61
(g33
S'\x92Va\xb40d\xf7>'
p3019
tp3020
Rp3021
g82
tp3022
aa(lp3023
VSn-124
p3024
a(g0
(g72
g2
Ntp3025
Rp3026
(dp3027
g76
V71c
p3028
sg78
Nsg42
g3024
sbg61
(g33
S'>E9\x9fx@\xfd>'
p3029
tp3030
Rp3031
g82
tp3032
aatp3033
Rp3034
sg96
g7
((lp3035
tp3036
Rp3037
sg100
I00
sg101
Nsg102
I10006
sbsg42
VFuel rod active region - 1.6% enr radial 2: zirc
p3038
sg104
g0
(g105
g2
Ntp3039
Rp3040
(dp3041
g109
(lp3042
g0
(g111
g2
Ntp3043
Rp3044
(dp3045
g115
g146
sg140
g141
sbag0
(g111
g2
Ntp3046
Rp3047
(dp3048
g115
g1998
sg140
g161
sbasbsg162
Nsg102
I10004
sbsg163
g0
(g164
g2
Ntp3049
Rp3050
(dp3051
g168
I01
sg169
(lp3052
g0
(g171
g2
Ntp3053
Rp3054
(dp3055
g175
g23
(g24
(I0
tp3056
g26
tp3057
Rp3058
(I1
(I1
tp3059
g182
I00
S"\x14'\x00\x00\x00\x00\x00\x00"
p3060
tp3061
bsg50
g187
sg188
g61
(g182
S'\x02\x00\x00\x00\x00\x00\x00\x00'
p3062
tp3063
Rp3064
sg192
Nsg193
I1
sg194
g202
sbag0
(g171
g2
Ntp3065
Rp3066
(dp3067
g175
g23
(g24
(I0
tp3068
g26
tp3069
Rp3070
(I1
(I3
tp3071
g33
I00
S'\x00\x00\x00\x00\x00\x00\x00\x00\xf1h\xe3\x88\xb5\xf8\xa4>\x00\x00\x00\x00\x00\x004@'
p3072
tp3073
bsg50
g212
sg188
g61
(g182
S'\x01\x00\x00\x00\x00\x00\x00\x00'
p3074
tp3075
Rp3076
sg192
Nsg193
I2
sg194
g218
sbasg219
Nsg220
g23
(g24
(I0
tp3077
g26
tp3078
Rp3079
(I1
(I2
I1
I1
tp3080
g33
I00
S'\xcf|\r\xe4\xb7)\xd3?3"<(:0\xd1?'
p3081
tp3082
bsg227
Nsg228
Nsg229
g23
(g24
(I0
tp3083
g26
tp3084
Rp3085
(I1
(I2
I1
I1
tp3086
g33
I00
S'\xb0\xc0\x86\xb2k\xd8Q?D\x12\x01\xe7\xd8+@?'
p3087
tp3088
bsg42
g43
sg236
(lp3089
sg238
g241
sg68
(lp3090
g0
(g72
g2
Ntp3091
Rp3092
(dp3093
g76
Nsg78
Nsg42
g246
sbasg247
g61
(g182
S'\x01\x00\x00\x00\x00\x00\x00\x00'
p3094
tp3095
Rp3096
sg251
g252
sg253
I01
sg254
I00
sg255
(lp3097
g0
(g257
g2
Ntp3098
Rp3099
(dp3100
g261
g262
sg263
g264
sg265
g0
(g257
g2
Ntp3101
Rp3102
(dp3103
g261
g269
sg263
g161
sg265
g270
sbsbasg102
I10052
sg271
I01
sbsg272
g7
((lp3104
(lp3105
g275
ag0
(g164
g2
Ntp3106
Rp3107
(dp3108
g168
I00
sg169
(lp3109
g0
(g171
g2
Ntp3110
Rp3111
(dp3112
g175
g23
(g24
(I0
tp3113
g26
tp3114
Rp3115
(I1
(I1
tp3116
g182
I00
S"\x14'\x00\x00\x00\x00\x00\x00"
p3117
tp3118
bsg50
g187
sg188
g61
(g182
S'\x02\x00\x00\x00\x00\x00\x00\x00'
p3119
tp3120
Rp3121
sg192
Nsg193
I1
sg194
g202
sbag0
(g171
g2
Ntp3122
Rp3123
(dp3124
g175
g23
(g24
(I0
tp3125
g26
tp3126
Rp3127
(I1
(I3
tp3128
g33
I00
S'\x00\x00\x00\x00\x00\x00\x00\x00\xf1h\xe3\x88\xb5\xf8\xa4>\x00\x00\x00\x00\x00\x004@'
p3129
tp3130
bsg50
g212
sg188
g61
(g182
S'\x01\x00\x00\x00\x00\x00\x00\x00'
p3131
tp3132
Rp3133
sg192
Nsg193
I2
sg194
g218
sbasg219
g304
sg236
(lp3134
sg228
g23
(g24
(I0
tp3135
g26
tp3136
Rp3137
(I1
(I2
I1
I1
tp3138
g33
I00
S'\xf2\xab\xb4kS\xecO@#\xd8H8\x92r\x92@'
p3139
tp3140
bsg229
g23
(g24
(I0
tp3141
g26
tp3142
Rp3143
(I1
(I2
I1
I1
tp3144
g33
I00
S"\x17\x0c\xb7'o\xba`?\xb5R\xae\x85q\x12q?"
p3145
tp3146
bsg42
g318
sg255
(lp3147
g262
asg220
g23
(g24
(I0
tp3148
g26
tp3149
Rp3150
(I1
(I2
I1
I1
tp3151
g33
I00
S'\xa2\xa9#\xe0\xfe\xf1\xea?\x9b\xf8\x06\x94=\xf9\x0c@'
p3152
tp3153
bsg238
g241
sg68
(lp3154
g0
(g72
g2
Ntp3155
Rp3156
(dp3157
g76
Nsg78
Nsg42
g246
sbasg227
g23
(g24
(I0
tp3158
g26
tp3159
Rp3160
(I1
(I2
I1
I1
tp3161
g33
I00
S"F\x13\x995'\xf2R@\xcd\xe6\x14L?_t@"
p3162
tp3163
bsg251
g252
sg253
I01
sg254
I01
sg247
g61
(g182
S'\x01\x00\x00\x00\x00\x00\x00\x00'
p3164
tp3165
Rp3166
sg102
g341
sg271
I01
sbaa(lp3167
g343
ag0
(g164
g2
Ntp3168
Rp3169
(dp3170
g168
I00
sg169
(lp3171
g3054
ag3066
asg219
g304
sg236
(lp3172
sg228
g23
(g24
(I0
tp3173
g26
tp3174
Rp3175
(I1
(I2
I1
I1
tp3176
g33
I00
S'\xaa\x94\t\x85):\x17@\x90\x07\x11_\x9c\xea\\@'
p3177
tp3178
bsg229
g23
(g24
(I0
tp3179
g26
tp3180
Rp3181
(I1
(I2
I1
I1
tp3182
g33
I00
S'F\xf3\xa5\xdcG9D?\xb6\xf4\xa4\x18@\x1cT?'
p3183
tp3184
bsg42
g318
sg255
(lp3185
g270
asg220
g23
(g24
(I0
tp3186
g26
tp3187
Rp3188
(I1
(I2
I1
I1
tp3189
g33
I00
S'\x87A\xd57\x92@\xd0?\xd5\x01#B6#\xf2?'
p3190
tp3191
bsg238
g241
sg68
(lp3192
g3092
asg227
g23
(g24
(I0
tp3193
g26
tp3194
Rp3195
(I1
(I2
I1
I1
tp3196
g33
I00
S'&\xe4\x83\x9e\xcd\xda6@\x93:\x01M\x84\x81Y@'
p3197
tp3198
bsg251
g252
sg253
I01
sg254
I01
sg247
g61
(g182
S'\x01\x00\x00\x00\x00\x00\x00\x00'
p3199
tp3200
Rp3201
sg102
g341
sg271
I01
sbaa(lp3202
g379
ag0
(g164
g2
Ntp3203
Rp3204
(dp3205
g168
I00
sg169
(lp3206
g0
(g171
g2
Ntp3207
Rp3208
(dp3209
g175
g23
(g24
(I0
tp3210
g26
tp3211
Rp3212
(I1
(I1
tp3213
g182
I00
S"\x14'\x00\x00\x00\x00\x00\x00"
p3214
tp3215
bsg50
g393
sg188
g61
(g182
S'\x02\x00\x00\x00\x00\x00\x00\x00'
p3216
tp3217
Rp3218
sg192
Nsg193
I1
sg194
g399
sbag0
(g171
g2
Ntp3219
Rp3220
(dp3221
g175
g23
(g24
(I0
tp3222
g26
tp3223
Rp3224
(I1
(I3
tp3225
g33
I00
S'\x00\x00\x00\x00\x00\x00\x00\x00\xf1h\xe3\x88\xb5\xf8\xa4>\x00\x00\x00\x00\x00\x004@'
p3226
tp3227
bsg50
g409
sg188
g61
(g182
S'\x01\x00\x00\x00\x00\x00\x00\x00'
p3228
tp3229
Rp3230
sg192
Nsg193
I2
sg194
g415
sbasg219
g416
sg236
(lp3231
sg228
g23
(g24
(I0
tp3232
g26
tp3233
Rp3234
(I1
(I2
I1
I1
tp3235
g33
I00
S'\xfeJ\xd4\xbb=4P?\xc2\x96\xd3\x1fE\xac\x02@'
p3236
tp3237
bsg229
g23
(g24
(I0
tp3238
g26
tp3239
Rp3240
(I1
(I2
I1
I1
tp3241
g33
I00
S"$\xe4T\xf1\xaeC3?\x06\xcf\x98'O\x9cE?"
p3242
tp3243
bsg42
g318
sg255
(lp3244
g269
asg220
g23
(g24
(I0
tp3245
g26
tp3246
Rp3247
(I1
(I2
I1
I1
tp3248
g33
I00
S'\xfd\xec\xc1?\xfc\xc1]?\xf1=\x9d7\x18\x99\xc4?'
p3249
tp3250
bsg238
g439
sg68
(lp3251
g0
(g72
g2
Ntp3252
Rp3253
(dp3254
g76
Nsg78
Nsg42
g444
sbasg227
g23
(g24
(I0
tp3255
g26
tp3256
Rp3257
(I1
(I2
I1
I1
tp3258
g33
I00
S'\xa2Z\xd4\\e\xec\xc4?\x1b\x1f5\x0eJ\xf7,@'
p3259
tp3260
bsg251
g451
sg253
I01
sg254
I01
sg247
g61
(g182
S'\x01\x00\x00\x00\x00\x00\x00\x00'
p3261
tp3262
Rp3263
sg102
g457
sg271
I01
sbaatp3264
Rp3265
sg460
I00
sbaa(lp3266
g462
ag0
(g463
g2
Ntp3267
Rp3268
(dp3269
g17
g20
sg38
g39
sg40
Nsg41
g467
sg42
g43
sg44
g2772
sg163
g0
(g164
g2
Ntp3270
Rp3271
(dp3272
g168
I01
sg169
(lp3273
g0
(g171
g2
Ntp3274
Rp3275
(dp3276
g175
g23
(g24
(I0
tp3277
g26
tp3278
Rp3279
(I1
(I1
tp3280
g182
I00
S"\x14'\x00\x00\x00\x00\x00\x00"
p3281
tp3282
bsg50
g481
sg188
g61
(g182
S'\x02\x00\x00\x00\x00\x00\x00\x00'
p3283
tp3284
Rp3285
sg192
Nsg193
I1
sg194
g487
sbag0
(g171
g2
Ntp3286
Rp3287
(dp3288
g175
g23
(g24
(I0
tp3289
g26
tp3290
Rp3291
(I1
(I3
tp3292
g33
I00
S'\x00\x00\x00\x00\x00\x00\x00\x00\xf1h\xe3\x88\xb5\xf8\xa4>\x00\x00\x00\x00\x00\x004@'
p3293
tp3294
bsg50
g497
sg188
g61
(g182
S'\x01\x00\x00\x00\x00\x00\x00\x00'
p3295
tp3296
Rp3297
sg192
Nsg193
I2
sg194
g503
sbasg219
Nsg220
g23
(g24
(I0
tp3298
g26
tp3299
Rp3300
(I1
(I2
I1
I1
tp3301
g33
I00
S'\x00\x00\x00\x00\x00\x00\x00\x00\x00\x00\x00\x00\x00\x00\x00\x00'
p3302
tp3303
bsg227
Nsg228
Nsg229
g23
(g24
(I0
tp3304
g26
tp3305
Rp3306
(I1
(I2
I1
I1
tp3307
g33
I00
S'\x00\x00\x00\x00\x00\x00\x00\x00\x00\x00\x00\x00\x00\x00\x00\x00'
p3308
tp3309
bsg42
g43
sg236
(lp3310
sg238
g519
sg68
(lp3311
g0
(g72
g2
Ntp3312
Rp3313
(dp3314
g76
Nsg78
Nsg42
g524
sbasg247
g61
(g182
S'\x01\x00\x00\x00\x00\x00\x00\x00'
p3315
tp3316
Rp3317
sg251
g528
sg253
I01
sg254
I00
sg255
(lp3318
g0
(g257
g2
Ntp3319
Rp3320
(dp3321
g261
g533
sg263
g264
sg265
g534
sbasg102
I10055
sg271
I01
sbsg272
g7
((lp3322
(lp3323
g275
ag0
(g164
g2
Ntp3324
Rp3325
(dp3326
g168
I00
sg169
(lp3327
g0
(g171
g2
Ntp3328
Rp3329
(dp3330
g175
g23
(g24
(I0
tp3331
g26
tp3332
Rp3333
(I1
(I1
tp3334
g182
I00
S"\x14'\x00\x00\x00\x00\x00\x00"
p3335
tp3336
bsg50
g481
sg188
g61
(g182
S'\x02\x00\x00\x00\x00\x00\x00\x00'
p3337
tp3338
Rp3339
sg192
Nsg193
I1
sg194
g487
sbag0
(g171
g2
Ntp3340
Rp3341
(dp3342
g175
g23
(g24
(I0
tp3343
g26
tp3344
Rp3345
(I1
(I3
tp3346
g33
I00
S'\x00\x00\x00\x00\x00\x00\x00\x00\xf1h\xe3\x88\xb5\xf8\xa4>\x00\x00\x00\x00\x00\x004@'
p3347
tp3348
bsg50
g497
sg188
g61
(g182
S'\x01\x00\x00\x00\x00\x00\x00\x00'
p3349
tp3350
Rp3351
sg192
Nsg193
I2
sg194
g503
sbasg219
g565
sg236
(lp3352
sg228
g23
(g24
(I0
tp3353
g26
tp3354
Rp3355
(I1
(I2
I1
I1
tp3356
g33
I00
S'\xb4\xebo\xcaa\xb5O@+\x86\xe7\x93\x1cf\x92@'
p3357
tp3358
bsg229
g23
(g24
(I0
tp3359
g26
tp3360
Rp3361
(I1
(I2
I1
I1
tp3362
g33
I00
S'\xaa@\xe5\x88\xdb\xdfR?\x878=\xac\xb9\x12`?'
p3363
tp3364
bsg42
g318
sg255
(lp3365
g533
asg220
g23
(g24
(I0
tp3366
g26
tp3367
Rp3368
(I1
(I2
I1
I1
tp3369
g33
I00
S'\xef:d\xac\xfd\xdb\xea?\x98\xaeC\t\xca\xef\x0c@'
p3370
tp3371
bsg238
g519
sg68
(lp3372
g0
(g72
g2
Ntp3373
Rp3374
(dp3375
g76
Nsg78
Nsg42
g524
sbasg227
g23
(g24
(I0
tp3376
g26
tp3377
Rp3378
(I1
(I2
I1
I1
tp3379
g33
I00
S'py6]\xae\xe2R@\xc3\x96\x83\x0e\x9aXt@'
p3380
tp3381
bsg251
g528
sg253
I01
sg254
I01
sg247
g61
(g182
S'\x01\x00\x00\x00\x00\x00\x00\x00'
p3382
tp3383
Rp3384
sg102
g601
sg271
I01
sbaa(lp3385
g603
ag0
(g164
g2
Ntp3386
Rp3387
(dp3388
g168
I00
sg169
(lp3389
g3275
ag3287
asg219
g565
sg236
(lp3390
sg228
g23
(g24
(I0
tp3391
g26
tp3392
Rp3393
(I1
(I2
I1
I1
tp3394
g33
I00
S'\x00\x00\x00\x00\x00\x00\x00\x00\x00\x00\x00\x00\x00\x00\x00\x00'
p3395
tp3396
bsg229
g23
(g24
(I0
tp3397
g26
tp3398
Rp3399
(I1
(I2
I1
I1
tp3400
g33
I00
S'\x00\x00\x00\x00\x00\x00\x00\x00\x00\x00\x00\x00\x00\x00\x00\x00'
p3401
tp3402
bsg42
g318
sg255
(lp3403
g534
asg220
g23
(g24
(I0
tp3404
g26
tp3405
Rp3406
(I1
(I2
I1
I1
tp3407
g33
I00
S'\x00\x00\x00\x00\x00\x00\x00\x00\x00\x00\x00\x00\x00\x00\x00\x00'
p3408
tp3409
bsg238
g519
sg68
(lp3410
g3313
asg227
g23
(g24
(I0
tp3411
g26
tp3412
Rp3413
(I1
(I2
I1
I1
tp3414
g33
I00
S'\x00\x00\x00\x00\x00\x00\x00\x00\x00\x00\x00\x00\x00\x00\x00\x00'
p3415
tp3416
bsg251
g528
sg253
I01
sg254
I01
sg247
g61
(g182
S'\x01\x00\x00\x00\x00\x00\x00\x00'
p3417
tp3418
Rp3419
sg102
g601
sg271
I01
sbaatp3420
Rp3421
sg460
I00
sbaa(lp3422
g641
ag0
(g642
g2
Ntp3423
Rp3424
(dp3425
g17
g20
sg38
g39
sg40
Nsg41
g646
sg42
g43
sg647
g648
sg44
g2772
sg163
g0
(g164
g2
Ntp3426
Rp3427
(dp3428
g168
I01
sg169
(lp3429
g0
(g171
g2
Ntp3430
Rp3431
(dp3432
g175
g23
(g24
(I0
tp3433
g26
tp3434
Rp3435
(I1
(I1
tp3436
g182
I00
S"\x14'\x00\x00\x00\x00\x00\x00"
p3437
tp3438
bsg50
g662
sg188
g61
(g182
S'\x04\x00\x00\x00\x00\x00\x00\x00'
p3439
tp3440
Rp3441
sg192
Nsg193
I1
sg194
g668
sbag0
(g171
g2
Ntp3442
Rp3443
(dp3444
g175
g23
(g24
(I0
tp3445
g26
tp3446
Rp3447
(I1
(I3
tp3448
g33
I00
S'\x00\x00\x00\x00\x00\x00\x00\x00\xf1h\xe3\x88\xb5\xf8\xa4>\x00\x00\x00\x00\x00\x004@'
p3449
tp3450
bsg50
g678
sg188
g61
(g182
S'\x02\x00\x00\x00\x00\x00\x00\x00'
p3451
tp3452
Rp3453
sg192
Nsg193
I2
sg194
g684
sbag0
(g171
g2
Ntp3454
Rp3455
(dp3456
g175
g23
(g24
(I0
tp3457
g26
tp3458
Rp3459
(I1
(I3
tp3460
g33
I00
S'\x00\x00\x00\x00\x00\x00\x00\x00\xf1h\xe3\x88\xb5\xf8\xa4>\x00\x00\x00\x00\x00\x004@'
p3461
tp3462
bsg50
g694
sg188
g61
(g182
S'\x01\x00\x00\x00\x00\x00\x00\x00'
p3463
tp3464
Rp3465
sg192
Nsg193
I2
sg194
g700
sbasg219
Nsg220
g23
(g24
(I0
tp3466
g26
tp3467
Rp3468
(I1
(I4
I1
I1
tp3469
g33
I00
S'\x85-/\x0bE\xbe\xd2?.\x1ee\xebj\xa58?\x00\x1a\x17>\xb6\xd12?\x15p\xf4\xafl\x10\xd1?'
p3470
tp3471
bsg227
Nsg228
Nsg229
g23
(g24
(I0
tp3472
g26
tp3473
Rp3474
(I1
(I4
I1
I1
tp3475
g33
I00
S'\xbb\xe5\x1a\xfbY\xa1Q?\x01A\xd3E\x0c\xfd\xf6>\xc8\xaf\x15N\xa3\x06\xe3>e\x10\xd0V\xec\x12@?'
p3476
tp3477
bsg42
g43
sg236
(lp3478
sg238
g716
sg68
(lp3479
g0
(g72
g2
Ntp3480
Rp3481
(dp3482
g76
Nsg78
Nsg42
g721
sbasg247
g61
(g182
S'\x01\x00\x00\x00\x00\x00\x00\x00'
p3483
tp3484
Rp3485
sg251
g725
sg253
I01
sg254
I00
sg255
(lp3486
g0
(g257
g2
Ntp3487
Rp3488
(dp3489
g261
g262
sg263
g264
sg265
g0
(g257
g2
Ntp3490
Rp3491
(dp3492
g261
g269
sg263
g161
sg265
g733
sbsbasg102
I10060
sg271
I01
sbsg272
g7
((lp3493
(lp3494
g275
ag0
(g164
g2
Ntp3495
Rp3496
(dp3497
g168
I00
sg169
(lp3498
g0
(g171
g2
Ntp3499
Rp3500
(dp3501
g175
g23
(g24
(I0
tp3502
g26
tp3503
Rp3504
(I1
(I1
tp3505
g182
I00
S"\x14'\x00\x00\x00\x00\x00\x00"
p3506
tp3507
bsg50
g187
sg188
g61
(g182
S'\x02\x00\x00\x00\x00\x00\x00\x00'
p3508
tp3509
Rp3510
sg192
Nsg193
I1
sg194
g202
sbag0
(g171
g2
Ntp3511
Rp3512
(dp3513
g175
g23
(g24
(I0
tp3514
g26
tp3515
Rp3516
(I1
(I3
tp3517
g33
I00
S'\x00\x00\x00\x00\x00\x00\x00\x00\xf1h\xe3\x88\xb5\xf8\xa4>\x00\x00\x00\x00\x00\x004@'
p3518
tp3519
bsg50
g212
sg188
g61
(g182
S'\x01\x00\x00\x00\x00\x00\x00\x00'
p3520
tp3521
Rp3522
sg192
Nsg193
I2
sg194
g218
sbasg219
g304
sg236
(lp3523
sg228
g23
(g24
(I0
tp3524
g26
tp3525
Rp3526
(I1
(I2
I1
I1
tp3527
g33
I00
S'\xf2\xab\xb4kS\xecO@#\xd8H8\x92r\x92@'
p3528
tp3529
bsg229
g23
(g24
(I0
tp3530
g26
tp3531
Rp3532
(I1
(I2
I1
I1
tp3533
g33
I00
S"\x17\x0c\xb7'o\xba`?\xb5R\xae\x85q\x12q?"
p3534
tp3535
bsg42
g318
sg255
(lp3536
g262
asg220
g23
(g24
(I0
tp3537
g26
tp3538
Rp3539
(I1
(I2
I1
I1
tp3540
g33
I00
S'\xa2\xa9#\xe0\xfe\xf1\xea?\x9b\xf8\x06\x94=\xf9\x0c@'
p3541
tp3542
bsg238
g241
sg68
(lp3543
g0
(g72
g2
Ntp3544
Rp3545
(dp3546
g76
Nsg78
Nsg42
g246
sbasg227
g23
(g24
(I0
tp3547
g26
tp3548
Rp3549
(I1
(I2
I1
I1
tp3550
g33
I00
S"F\x13\x995'\xf2R@\xcd\xe6\x14L?_t@"
p3551
tp3552
bsg251
g252
sg253
I01
sg254
I01
sg247
g61
(g182
S'\x01\x00\x00\x00\x00\x00\x00\x00'
p3553
tp3554
Rp3555
sg102
g341
sg271
I01
sbaa(lp3556
g798
ag0
(g164
g2
Ntp3557
Rp3558
(dp3559
g168
I00
sg169
(lp3560
g3431
ag3443
ag3455
asg219
g803
sg236
(lp3561
sg228
g23
(g24
(I0
tp3562
g26
tp3563
Rp3564
(I1
(I4
I1
I1
tp3565
g33
I00
S'2\xbeO\xf2v:\x16@\xe54\x0b\xb4;\xa4\xe8>d.?\x892\xc8\x1b?\x9aK\xd4\x7f\x14\x8f\\@'
p3566
tp3567
bsg229
g23
(g24
(I0
tp3568
g26
tp3569
Rp3570
(I1
(I4
I1
I1
tp3571
g33
I00
S'\xbcY\x87XL\x1eD?\xcc\x17\x99\xb4(W\xf3>\xd5L\xde\xe6\x117\x01?\xa2\x88\xfa\x82q\xf9S?'
p3572
tp3573
bsg42
g318
sg255
(lp3574
g733
asg220
g23
(g24
(I0
tp3575
g26
tp3576
Rp3577
(I1
(I4
I1
I1
tp3578
g33
I00
S'\x87C\xbe\xad0\xcc\xcf?\x86\n!\xfa\xc8\xc04?D\xc58\x7f\x13\nQ?\x97\x8d\xe1\xc4j\x06\xf2?'
p3579
tp3580
bsg238
g716
sg68
(lp3581
g3481
asg227
g23
(g24
(I0
tp3582
g26
tp3583
Rp3584
(I1
(I4
I1
I1
tp3585
g33
I00
S'{\xc7):\x92[6@\xcdv\xbe\x9f\x1a/\x9d?h\xd5\xe7j+\xf6\xb7?\x1c/\xdd$\x06YY@'
p3586
tp3587
bsg251
g725
sg253
I01
sg254
I01
sg247
g833
sg102
g836
sg271
I01
sbaa(lp3588
g838
ag0
(g164
g2
Ntp3589
Rp3590
(dp3591
g168
I00
sg169
(lp3592
g0
(g171
g2
Ntp3593
Rp3594
(dp3595
g175
g23
(g24
(I0
tp3596
g26
tp3597
Rp3598
(I1
(I1
tp3599
g182
I00
S"\x14'\x00\x00\x00\x00\x00\x00"
p3600
tp3601
bsg50
g393
sg188
g61
(g182
S'\x02\x00\x00\x00\x00\x00\x00\x00'
p3602
tp3603
Rp3604
sg192
Nsg193
I1
sg194
g399
sbag0
(g171
g2
Ntp3605
Rp3606
(dp3607
g175
g23
(g24
(I0
tp3608
g26
tp3609
Rp3610
(I1
(I3
tp3611
g33
I00
S'\x00\x00\x00\x00\x00\x00\x00\x00\xf1h\xe3\x88\xb5\xf8\xa4>\x00\x00\x00\x00\x00\x004@'
p3612
tp3613
bsg50
g864
sg188
g61
(g182
S'\x01\x00\x00\x00\x00\x00\x00\x00'
p3614
tp3615
Rp3616
sg192
Nsg193
I2
sg194
g415
sbasg219
g416
sg236
(lp3617
sg228
g23
(g24
(I0
tp3618
g26
tp3619
Rp3620
(I1
(I2
I1
I1
tp3621
g33
I00
S'\xfeJ\xd4\xbb=4P?\xc2\x96\xd3\x1fE\xac\x02@'
p3622
tp3623
bsg229
g23
(g24
(I0
tp3624
g26
tp3625
Rp3626
(I1
(I2
I1
I1
tp3627
g33
I00
S"$\xe4T\xf1\xaeC3?\x06\xcf\x98'O\x9cE?"
p3628
tp3629
bsg42
g318
sg255
(lp3630
g269
asg220
g23
(g24
(I0
tp3631
g26
tp3632
Rp3633
(I1
(I2
I1
I1
tp3634
g33
I00
S'\xfd\xec\xc1?\xfc\xc1]?\xf1=\x9d7\x18\x99\xc4?'
p3635
tp3636
bsg238
g439
sg68
(lp3637
g0
(g72
g2
Ntp3638
Rp3639
(dp3640
g76
Nsg78
Nsg42
g444
sbasg227
g23
(g24
(I0
tp3641
g26
tp3642
Rp3643
(I1
(I2
I1
I1
tp3644
g33
I00
S'\xa2Z\xd4\\e\xec\xc4?\x1b\x1f5\x0eJ\xf7,@'
p3645
tp3646
bsg251
g451
sg253
I01
sg254
I01
sg247
g61
(g182
S'\x01\x00\x00\x00\x00\x00\x00\x00'
p3647
tp3648
Rp3649
sg102
g457
sg271
I01
sbaatp3650
Rp3651
sg460
I00
sbaa(lp3652
g904
ag0
(g905
g2
Ntp3653
Rp3654
(dp3655
g17
g20
sg38
g39
sg40
Nsg41
g904
sg42
g43
sg44
g2772
sg163
g0
(g164
g2
Ntp3656
Rp3657
(dp3658
g168
I01
sg169
(lp3659
g0
(g171
g2
Ntp3660
Rp3661
(dp3662
g175
g23
(g24
(I0
tp3663
g26
tp3664
Rp3665
(I1
(I1
tp3666
g182
I00
S"\x14'\x00\x00\x00\x00\x00\x00"
p3667
tp3668
bsg50
g393
sg188
g61
(g182
S'\x02\x00\x00\x00\x00\x00\x00\x00'
p3669
tp3670
Rp3671
sg192
Nsg193
I1
sg194
g399
sbag0
(g171
g2
Ntp3672
Rp3673
(dp3674
g175
g23
(g24
(I0
tp3675
g26
tp3676
Rp3677
(I1
(I3
tp3678
g33
I00
S'\x00\x00\x00\x00\x00\x00\x00\x00\xf1h\xe3\x88\xb5\xf8\xa4>\x00\x00\x00\x00\x00\x004@'
p3679
tp3680
bsg50
g864
sg188
g61
(g182
S'\x01\x00\x00\x00\x00\x00\x00\x00'
p3681
tp3682
Rp3683
sg192
Nsg193
I2
sg194
g415
sbasg219
Nsg220
g23
(g24
(I0
tp3684
g26
tp3685
Rp3686
(I1
(I2
I1
I1
tp3687
g33
I00
S'\x00\x00\x00\x00\x00\x00\x00\x00\x00\x00\x00\x00\x00\x00\x00\x00'
p3688
tp3689
bsg227
Nsg228
Nsg229
g23
(g24
(I0
tp3690
g26
tp3691
Rp3692
(I1
(I2
I1
I1
tp3693
g33
I00
S'\x00\x00\x00\x00\x00\x00\x00\x00\x00\x00\x00\x00\x00\x00\x00\x00'
p3694
tp3695
bsg42
g43
sg236
(lp3696
sg238
g439
sg68
(lp3697
g0
(g72
g2
Ntp3698
Rp3699
(dp3700
g76
Nsg78
Nsg42
g444
sbasg247
g61
(g182
S'\x01\x00\x00\x00\x00\x00\x00\x00'
p3701
tp3702
Rp3703
sg251
g451
sg253
I01
sg254
I00
sg255
(lp3704
g958
asg102
I10063
sg271
I01
sbsg272
g7
((lp3705
(lp3706
g961
ag0
(g164
g2
Ntp3707
Rp3708
(dp3709
g168
I00
sg169
(lp3710
g0
(g171
g2
Ntp3711
Rp3712
(dp3713
g175
g23
(g24
(I0
tp3714
g26
tp3715
Rp3716
(I1
(I1
tp3717
g182
I00
S"\x14'\x00\x00\x00\x00\x00\x00"
p3718
tp3719
bsg50
g975
sg188
g61
(g182
S'\x01\x00\x00\x00\x00\x00\x00\x00'
p3720
tp3721
Rp3722
sg192
Nsg193
I1
sg194
g981
sbag0
(g171
g2
Ntp3723
Rp3724
(dp3725
g175
g23
(g24
(I0
tp3726
g26
tp3727
Rp3728
(I1
(I2
tp3729
g33
I00
S'\x00\x00\x00\x00\x00\x00\x00\x00\x00\x00\x00\x00\x00\x004@'
p3730
tp3731
bsg50
g991
sg188
g61
(g182
S'\x01\x00\x00\x00\x00\x00\x00\x00'
p3732
tp3733
Rp3734
sg192
Nsg193
I1
sg194
g997
sbasg219
g998
sg236
(lp3735
sg228
g23
(g24
(I0
tp3736
g26
tp3737
Rp3738
(I1
(I1
I1
I1
tp3739
g33
I00
S'\x00\x00\x00\x00\x00\x00\x00\x00'
p3740
tp3741
bsg229
g23
(g24
(I0
tp3742
g26
tp3743
Rp3744
(I1
(I1
I1
I1
tp3745
g33
I00
S'\x00\x00\x00\x00\x00\x00\x00\x00'
p3746
tp3747
bsg42
g318
sg255
(lp3748
g1013
asg220
g23
(g24
(I0
tp3749
g26
tp3750
Rp3751
(I1
(I1
I1
I1
tp3752
g33
I00
S'\x00\x00\x00\x00\x00\x00\x00\x00'
p3753
tp3754
bsg238
g1022
sg68
(lp3755
g0
(g72
g2
Ntp3756
Rp3757
(dp3758
g76
Nsg78
Nsg42
g1027
sbasg227
g23
(g24
(I0
tp3759
g26
tp3760
Rp3761
(I1
(I1
I1
I1
tp3762
g33
I00
S'\x00\x00\x00\x00\x00\x00\x00\x00'
p3763
tp3764
bsg251
g1034
sg253
I01
sg254
I01
sg247
g1037
sg102
g1040
sg271
I01
sbaa(lp3765
g1042
ag0
(g164
g2
Ntp3766
Rp3767
(dp3768
g168
I00
sg169
(lp3769
g3661
ag3673
asg219
g416
sg236
(lp3770
sg228
g23
(g24
(I0
tp3771
g26
tp3772
Rp3773
(I1
(I2
I1
I1
tp3774
g33
I00
S'\x00\x00\x00\x00\x00\x00\x00\x00\x00\x00\x00\x00\x00\x00\x00\x00'
p3775
tp3776
bsg229
g23
(g24
(I0
tp3777
g26
tp3778
Rp3779
(I1
(I2
I1
I1
tp3780
g33
I00
S'\x00\x00\x00\x00\x00\x00\x00\x00\x00\x00\x00\x00\x00\x00\x00\x00'
p3781
tp3782
bsg42
g318
sg255
(lp3783
g958
asg220
g23
(g24
(I0
tp3784
g26
tp3785
Rp3786
(I1
(I2
I1
I1
tp3787
g33
I00
S'\x00\x00\x00\x00\x00\x00\x00\x00\x00\x00\x00\x00\x00\x00\x00\x00'
p3788
tp3789
bsg238
g439
sg68
(lp3790
g3699
asg227
g23
(g24
(I0
tp3791
g26
tp3792
Rp3793
(I1
(I2
I1
I1
tp3794
g33
I00
S'\x00\x00\x00\x00\x00\x00\x00\x00\x00\x00\x00\x00\x00\x00\x00\x00'
p3795
tp3796
bsg251
g451
sg253
I01
sg254
I01
sg247
g3703
sg102
g457
sg271
I01
sbaatp3797
Rp3798
sg460
I00
sbaatp3799
Rp3800
aatp3801
Rp3802
sg17
g20
sg219
Vstatepoint.100.h5
p3803
sS'_openmc_geometry'
p3804
g0
(copenmc.geometry
Geometry
p3805
g2
Ntp3806
Rp3807
(dp3808
g162
(dp3809
sS'_root_universe'
p3810
g0
(copenmc.universe
Universe
p3811
g2
Ntp3812
Rp3813
(dp3814
S'_cells'
p3815
g7
((lp3816
(lp3817
I10000
ag0
(g45
g2
Ntp3818
Rp3819
(dp3820
g49
Nsg50
S'fill'
p3821
sg52
Nsg53
g0
(g3811
g2
Ntp3822
Rp3823
(dp3824
g3815
g7
((lp3825
(lp3826
I10001
ag47
aa(lp3827
I10002
ag1085
aa(lp3828
I10003
ag1914
aa(lp3829
I10004
ag2772
aatp3830
Rp3831
sS'_num_regions'
p3832
I0
sg102
I1
sS'_cell_offsets'
p3833
g7
((lp3834
tp3835
Rp3836
sg42
g43
sbsg42
Vroot cell
p3837
sg104
g0
(g105
g2
Ntp3838
Rp3839
(dp3840
g109
(lp3841
g0
(g111
g2
Ntp3842
Rp3843
(dp3844
g115
g0
(copenmc.surface
XPlane
p3845
g2
Ntp3846
Rp3847
(dp3848
g50
S'x-plane'
p3849
sg121
(dp3850
g127
g61
(g33
S'\x0e\x15\xe3\xfcM(\xe4\xbf'
p3851
tp3852
Rp3853
ssg42
g318
sg136
Vreflective
p3854
sg102
I10000
sg138
(lp3855
g127
asbsg140
g141
sbag0
(g111
g2
Ntp3856
Rp3857
(dp3858
g115
g0
(copenmc.surface
YPlane
p3859
g2
Ntp3860
Rp3861
(dp3862
g50
S'y-plane'
p3863
sg121
(dp3864
g123
g61
(g33
S'\x0e\x15\xe3\xfcM(\xe4\xbf'
p3865
tp3866
Rp3867
ssg42
g318
sg136
Vreflective
p3868
sg102
I10001
sg138
(lp3869
g123
asbsg140
g141
sbag0
(g111
g2
Ntp3870
Rp3871
(dp3872
g115
g0
(g3845
g2
Ntp3873
Rp3874
(dp3875
g50
g3849
sg121
(dp3876
g127
g61
(g33
S'\x0e\x15\xe3\xfcM(\xe4?'
p3877
tp3878
Rp3879
ssg42
g318
sg136
Vreflective
p3880
sg102
I10002
sg138
(lp3881
g127
asbsg140
g161
sbag0
(g111
g2
Ntp3882
Rp3883
(dp3884
g115
g0
(g3859
g2
Ntp3885
Rp3886
(dp3887
g50
g3863
sg121
(dp3888
g123
g61
(g33
S'\x0e\x15\xe3\xfcM(\xe4?'
p3889
tp3890
Rp3891
ssg42
g318
sg136
Vreflective
p3892
sg102
I10003
sg138
(lp3893
g123
asbsg140
g161
sbasbsg162
Nsg102
I10000
sbaatp3894
Rp3895
sg3832
I0
sg102
I0
sg3833
g7
((lp3896
tp3897
Rp3898
sg42
g43
sbsbsS'_mgxs_types'
p3899
(lp3900
g12
ag462
ag641
ag904
asg38
g39
sg40
Nsg42
g43
sS'_opencg_geometry'
p3901
Nsg647
g648
sg460
I00
sb.